TN:
SF:/Library/Developer/CommandLineTools/SDKs/MacOSX14.2.sdk/usr/include/c++/v1/__algorithm/comp.h
FN:47,47,_ZNKSt3__16__lessImmEclB7v160006ERKmS3_
FNDA:525,_ZNKSt3__16__lessImmEclB7v160006ERKmS3_
FNF:1
FNH:1
DA:47,525
LF:1
LH:1
end_of_record
TN:
SF:/Library/Developer/CommandLineTools/SDKs/MacOSX14.2.sdk/usr/include/c++/v1/__algorithm/copy.h
FN:104,105,_ZNKSt3__114__copy_trivialclB7v160006IKffLi0EEENS_4pairIPT_PT0_EES5_S5_S7_
FN:111,113,_ZNSt3__16__copyB7v160006INS_17_ClassicAlgPolicyEPKfS3_PfEENS_4pairIT0_T2_EES6_T1_S7_
FN:118,119,_ZNSt3__14copyB7v160006IPKfPfEET0_T_S5_S4_
FNDA:1,_ZNKSt3__114__copy_trivialclB7v160006IKffLi0EEENS_4pairIPT_PT0_EES5_S5_S7_
FNDA:1,_ZNSt3__16__copyB7v160006INS_17_ClassicAlgPolicyEPKfS3_PfEENS_4pairIT0_T2_EES6_T1_S7_
FNDA:1,_ZNSt3__14copyB7v160006IPKfPfEET0_T_S5_S4_
FNF:3
FNH:3
DA:104,1
DA:105,1
DA:111,1
DA:112,1
DA:113,1
DA:118,1
DA:119,1
LF:7
LH:7
end_of_record
TN:
SF:/Library/Developer/CommandLineTools/SDKs/MacOSX14.2.sdk/usr/include/c++/v1/__algorithm/copy_move_common.h
FN:105,109,_ZNSt3__121__unwrap_and_dispatchB7v160006INS_10__overloadINS_11__copy_loopINS_17_ClassicAlgPolicyEEENS_14__copy_trivialEEEPKfS8_PfLi0EEENS_4pairIT0_T2_EESB_T1_SC_
FN:139,158,_ZNSt3__123__dispatch_copy_or_moveB7v160006INS_17_ClassicAlgPolicyENS_11__copy_loopIS1_EENS_14__copy_trivialEPKfS6_PfEENS_4pairIT2_T4_EES9_T3_SA_
FN:62,66,_ZNSt3__119__copy_trivial_implB7v160006IKffEENS_4pairIPT_PT0_EES4_S4_S6_
FNDA:1,_ZNSt3__121__unwrap_and_dispatchB7v160006INS_10__overloadINS_11__copy_loopINS_17_ClassicAlgPolicyEEENS_14__copy_trivialEEEPKfS8_PfLi0EEENS_4pairIT0_T2_EESB_T1_SC_
FNDA:1,_ZNSt3__123__dispatch_copy_or_moveB7v160006INS_17_ClassicAlgPolicyENS_11__copy_loopIS1_EENS_14__copy_trivialEPKfS6_PfEENS_4pairIT2_T4_EES9_T3_SA_
FNDA:1,_ZNSt3__119__copy_trivial_implB7v160006IKffEENS_4pairIPT_PT0_EES4_S4_S6_
FNF:3
FNH:3
DA:62,1
DA:63,1
DA:64,1
DA:66,1
DA:105,1
DA:106,1
DA:107,1
DA:108,2
DA:109,1
DA:139,1
DA:158,1
LF:11
LH:11
end_of_record
TN:
SF:/Library/Developer/CommandLineTools/SDKs/MacOSX14.2.sdk/usr/include/c++/v1/__algorithm/max.h
FN:31,33,_ZNSt3__13maxB7v160006ImNS_6__lessImmEEEERKT_S5_S5_T0_
FN:40,42,_ZNSt3__13maxB7v160006ImEERKT_S3_S3_
FNDA:227,_ZNSt3__13maxB7v160006ImNS_6__lessImmEEEERKT_S5_S5_T0_
FNDA:227,_ZNSt3__13maxB7v160006ImEERKT_S3_S3_
FNF:2
FNH:2
DA:31,227
DA:33,227
DA:40,227
DA:42,227
LF:4
LH:4
end_of_record
TN:
SF:/Library/Developer/CommandLineTools/SDKs/MacOSX14.2.sdk/usr/include/c++/v1/__algorithm/min.h
FN:31,33,_ZNSt3__13minB7v160006ImNS_6__lessImmEEEERKT_S5_S5_T0_
FN:40,42,_ZNSt3__13minB7v160006ImEERKT_S3_S3_
FNDA:298,_ZNSt3__13minB7v160006ImNS_6__lessImmEEEERKT_S5_S5_T0_
FNDA:298,_ZNSt3__13minB7v160006ImEERKT_S3_S3_
FNF:2
FNH:2
DA:31,298
DA:33,298
DA:40,298
DA:42,298
LF:4
LH:4
end_of_record
TN:
SF:/Library/Developer/CommandLineTools/SDKs/MacOSX14.2.sdk/usr/include/c++/v1/__algorithm/unwrap_iter.h
FN:48,49,_ZNSt3__118__unwrap_iter_implIPKfLb1EE8__rewrapB7v160006ES2_S2_
FN:48,49,_ZNSt3__118__unwrap_iter_implIPfLb1EE8__rewrapB7v160006ES1_S1_
FN:52,53,_ZNSt3__118__unwrap_iter_implIPKfLb1EE8__unwrapB7v160006ES2_
FN:52,53,_ZNSt3__118__unwrap_iter_implIPfLb1EE8__unwrapB7v160006ES1_
FN:63,64,_ZNSt3__113__unwrap_iterB7v160006IPKfNS_18__unwrap_iter_implIS2_Lb1EEELi0EEEDTclsrT0_8__unwrapclsr3stdE7declvalIT_EEEES6_
FN:63,64,_ZNSt3__113__unwrap_iterB7v160006IPfNS_18__unwrap_iter_implIS1_Lb1EEELi0EEEDTclsrT0_8__unwrapclsr3stdE7declvalIT_EEEES5_
FN:68,69,_ZNSt3__113__rewrap_iterB7v160006IPKfS2_NS_18__unwrap_iter_implIS2_Lb1EEEEET_S5_T0_
FN:68,69,_ZNSt3__113__rewrap_iterB7v160006IPfS1_NS_18__unwrap_iter_implIS1_Lb1EEEEET_S4_T0_
FNDA:1,_ZNSt3__118__unwrap_iter_implIPKfLb1EE8__rewrapB7v160006ES2_S2_
FNDA:1,_ZNSt3__118__unwrap_iter_implIPfLb1EE8__rewrapB7v160006ES1_S1_
FNDA:2,_ZNSt3__118__unwrap_iter_implIPKfLb1EE8__unwrapB7v160006ES2_
FNDA:1,_ZNSt3__118__unwrap_iter_implIPfLb1EE8__unwrapB7v160006ES1_
FNDA:2,_ZNSt3__113__unwrap_iterB7v160006IPKfNS_18__unwrap_iter_implIS2_Lb1EEELi0EEEDTclsrT0_8__unwrapclsr3stdE7declvalIT_EEEES6_
FNDA:1,_ZNSt3__113__unwrap_iterB7v160006IPfNS_18__unwrap_iter_implIS1_Lb1EEELi0EEEDTclsrT0_8__unwrapclsr3stdE7declvalIT_EEEES5_
FNDA:1,_ZNSt3__113__rewrap_iterB7v160006IPKfS2_NS_18__unwrap_iter_implIS2_Lb1EEEEET_S5_T0_
FNDA:1,_ZNSt3__113__rewrap_iterB7v160006IPfS1_NS_18__unwrap_iter_implIS1_Lb1EEEEET_S4_T0_
FNF:8
FNH:8
DA:48,2
DA:49,2
DA:52,3
DA:53,3
DA:63,3
DA:64,3
DA:68,2
DA:69,2
LF:8
LH:8
end_of_record
TN:
SF:/Library/Developer/CommandLineTools/SDKs/MacOSX14.2.sdk/usr/include/c++/v1/__algorithm/unwrap_range.h
FN:85,86,_ZNSt3__114__unwrap_rangeB7v160006IPKfS2_EENS_4pairIT0_S4_EET_S6_
FN:90,91,_ZNSt3__114__rewrap_rangeB7v160006IPKfS2_EET_S3_T0_
FNDA:1,_ZNSt3__114__unwrap_rangeB7v160006IPKfS2_EENS_4pairIT0_S4_EET_S6_
FNDA:1,_ZNSt3__114__rewrap_rangeB7v160006IPKfS2_EET_S3_T0_
FNF:2
FNH:2
DA:85,1
DA:86,1
DA:90,1
DA:91,1
LF:4
LH:4
end_of_record
TN:
SF:/Library/Developer/CommandLineTools/SDKs/MacOSX14.2.sdk/usr/include/c++/v1/__debug
FN:214,_ZNSt3__119__debug_db_insert_cB7v160006INS_12basic_stringIcNS_11char_traitsIcEENS_9allocatorIcEEEEEEvPT_
FN:214,_ZNSt3__119__debug_db_insert_cB7v160006INS_6vectorI6EntityNS_9allocatorIS2_EEEEEEvPT_
FN:214,_ZNSt3__119__debug_db_insert_cB7v160006INS_6vectorIN2sf6VertexENS_9allocatorIS3_EEEEEEvPT_
FN:214,_ZNSt3__119__debug_db_insert_cB7v160006INS_6vectorINS_4pairIffEENS_9allocatorIS3_EEEEEEvPT_
FN:214,_ZNSt3__119__debug_db_insert_cB7v160006INS_6vectorIfNS_9allocatorIfEEEEEEvPT_
FN:234,_ZNSt3__118__debug_db_erase_cB7v160006INS_12basic_stringIjNS_11char_traitsIjEENS_9allocatorIjEEEEEEvPT_
FN:234,_ZNSt3__118__debug_db_erase_cB7v160006INS_6vectorI6EntityNS_9allocatorIS2_EEEEEEvPT_
FN:234,_ZNSt3__118__debug_db_erase_cB7v160006INS_6vectorIN2sf6VertexENS_9allocatorIS3_EEEEEEvPT_
FN:234,_ZNSt3__118__debug_db_erase_cB7v160006INS_6vectorINS_4pairIffEENS_9allocatorIS3_EEEEEEvPT_
FN:234,_ZNSt3__118__debug_db_erase_cB7v160006INS_6vectorIfNS_9allocatorIfEEEEEEvPT_
FN:255,_ZNSt3__125__debug_db_invalidate_allB7v160006INS_6vectorI6EntityNS_9allocatorIS2_EEEEEEvPT_
FNDA:378,_ZNSt3__119__debug_db_insert_cB7v160006INS_12basic_stringIcNS_11char_traitsIcEENS_9allocatorIcEEEEEEvPT_
FNDA:1,_ZNSt3__119__debug_db_insert_cB7v160006INS_6vectorI6EntityNS_9allocatorIS2_EEEEEEvPT_
FNDA:14,_ZNSt3__119__debug_db_insert_cB7v160006INS_6vectorIN2sf6VertexENS_9allocatorIS3_EEEEEEvPT_
FNDA:1,_ZNSt3__119__debug_db_insert_cB7v160006INS_6vectorINS_4pairIffEENS_9allocatorIS3_EEEEEEvPT_
FNDA:1,_ZNSt3__119__debug_db_insert_cB7v160006INS_6vectorIfNS_9allocatorIfEEEEEEvPT_
FNDA:1,_ZNSt3__118__debug_db_erase_cB7v160006INS_12basic_stringIjNS_11char_traitsIjEENS_9allocatorIjEEEEEEvPT_
FNDA:1,_ZNSt3__118__debug_db_erase_cB7v160006INS_6vectorI6EntityNS_9allocatorIS2_EEEEEEvPT_
FNDA:1,_ZNSt3__118__debug_db_erase_cB7v160006INS_6vectorIN2sf6VertexENS_9allocatorIS3_EEEEEEvPT_
FNDA:1,_ZNSt3__118__debug_db_erase_cB7v160006INS_6vectorINS_4pairIffEENS_9allocatorIS3_EEEEEEvPT_
FNDA:1,_ZNSt3__118__debug_db_erase_cB7v160006INS_6vectorIfNS_9allocatorIfEEEEEEvPT_
FNDA:4,_ZNSt3__125__debug_db_invalidate_allB7v160006INS_6vectorI6EntityNS_9allocatorIS2_EEEEEEvPT_
FNF:11
FNH:11
DA:214,395
DA:221,395
DA:234,5
DA:241,5
DA:255,4
DA:262,4
LF:6
LH:6
end_of_record
TN:
SF:/Library/Developer/CommandLineTools/SDKs/MacOSX14.2.sdk/usr/include/c++/v1/__functional/bind.h
FN:133,136,_ZNSt3__14__muB7v160006INS_12placeholders4__phILi1EEENS_5tupleIJRKNS_5arrayIdLm4EEEEEEEENS_9enable_ifIXltLi0Esr14is_placeholderIT_EE5valueENS_12__mu_return2IXltLi0Esr14is_placeholderISB_EE5valueESB_T0_E4typeEE4typeERSB_RSD_
FN:260,263,_ZNSt3__115__apply_functorB7v160006IMN5boost7numeric6odeint19explicit_generic_rkILm4ELm4ENS_5arrayIdLm4EEEdS6_dNS3_13array_algebraENS3_18default_operationsENS3_17initially_resizerEEEFbRKS6_ENS_5tupleIJNS_17reference_wrapperISA_EENS_12placeholders4__phILi1EEEEEEJLm0ELm1EENSF_IJSC_EEEEENS_13__bind_returnIT_T0_T2_Xsr22__is_valid_bind_returnISO_SP_SQ_EE5valueEE4typeERSO_RSP_NS_15__tuple_indicesIJXspT1_EEEEOSQ_
FN:260,263,_ZNSt3__115__apply_functorB7v160006IMN5boost7numeric6odeint21explicit_stepper_baseINS3_19explicit_generic_rkILm4ELm4ENS_5arrayIdLm4EEEdS7_dNS3_13array_algebraENS3_18default_operationsENS3_17initially_resizerEEELt4ES7_dS7_dS8_S9_SA_EEFbRKS7_ENS_5tupleIJNS_17reference_wrapperISC_EENS_12placeholders4__phILi1EEEEEEJLm0ELm1EENSH_IJSE_EEEEENS_13__bind_returnIT_T0_T2_Xsr22__is_valid_bind_returnISQ_SR_SS_EE5valueEE4typeERSQ_RSR_NS_15__tuple_indicesIJXspT1_EEEEOSS_
FN:286,288,_ZNSt3__16__bindIMN5boost7numeric6odeint19explicit_generic_rkILm4ELm4ENS_5arrayIdLm4EEEdS6_dNS3_13array_algebraENS3_18default_operationsENS3_17initially_resizerEEEFbRKS6_EJNS_17reference_wrapperISA_EERKNS_12placeholders4__phILi1EEEEEC1B7v160006ISE_JSG_SL_EvEEOT_DpOT0_
FN:286,288,_ZNSt3__16__bindIMN5boost7numeric6odeint19explicit_generic_rkILm4ELm4ENS_5arrayIdLm4EEEdS6_dNS3_13array_algebraENS3_18default_operationsENS3_17initially_resizerEEEFbRKS6_EJNS_17reference_wrapperISA_EERKNS_12placeholders4__phILi1EEEEEC2B7v160006ISE_JSG_SL_EvEEOT_DpOT0_
FN:286,288,_ZNSt3__16__bindIMN5boost7numeric6odeint21explicit_stepper_baseINS3_19explicit_generic_rkILm4ELm4ENS_5arrayIdLm4EEEdS7_dNS3_13array_algebraENS3_18default_operationsENS3_17initially_resizerEEELt4ES7_dS7_dS8_S9_SA_EEFbRKS7_EJNS_17reference_wrapperISC_EERKNS_12placeholders4__phILi1EEEEEC1B7v160006ISG_JSI_SN_EvEEOT_DpOT0_
FN:286,288,_ZNSt3__16__bindIMN5boost7numeric6odeint21explicit_stepper_baseINS3_19explicit_generic_rkILm4ELm4ENS_5arrayIdLm4EEEdS7_dNS3_13array_algebraENS3_18default_operationsENS3_17initially_resizerEEELt4ES7_dS7_dS8_S9_SA_EEFbRKS7_EJNS_17reference_wrapperISC_EERKNS_12placeholders4__phILi1EEEEEC2B7v160006ISG_JSI_SN_EvEEOT_DpOT0_
FN:293,296,_ZNSt3__16__bindIMN5boost7numeric6odeint19explicit_generic_rkILm4ELm4ENS_5arrayIdLm4EEEdS6_dNS3_13array_algebraENS3_18default_operationsENS3_17initially_resizerEEEFbRKS6_EJNS_17reference_wrapperISA_EERKNS_12placeholders4__phILi1EEEEEclB7v160006IJSC_EEENS_13__bind_returnISE_NS_5tupleIJSG_SJ_EEENSP_IJDpOT_EEEXsr22__is_valid_bind_returnISE_SQ_SU_EE5valueEE4typeEST_
FN:293,296,_ZNSt3__16__bindIMN5boost7numeric6odeint21explicit_stepper_baseINS3_19explicit_generic_rkILm4ELm4ENS_5arrayIdLm4EEEdS7_dNS3_13array_algebraENS3_18default_operationsENS3_17initially_resizerEEELt4ES7_dS7_dS8_S9_SA_EEFbRKS7_EJNS_17reference_wrapperISC_EERKNS_12placeholders4__phILi1EEEEEclB7v160006IJSE_EEENS_13__bind_returnISG_NS_5tupleIJSI_SL_EEENSR_IJDpOT_EEEXsr22__is_valid_bind_returnISG_SS_SW_EE5valueEE4typeESV_
FN:370,373,_ZNSt3__14bindB7v160006IMN5boost7numeric6odeint19explicit_generic_rkILm4ELm4ENS_5arrayIdLm4EEEdS6_dNS3_13array_algebraENS3_18default_operationsENS3_17initially_resizerEEEFbRKS6_EJNS_17reference_wrapperISA_EERKNS_12placeholders4__phILi1EEEEEENS_6__bindIT_JDpT0_EEEOSN_DpOSO_
FN:370,373,_ZNSt3__14bindB7v160006IMN5boost7numeric6odeint21explicit_stepper_baseINS3_19explicit_generic_rkILm4ELm4ENS_5arrayIdLm4EEEdS7_dNS3_13array_algebraENS3_18default_operationsENS3_17initially_resizerEEELt4ES7_dS7_dS8_S9_SA_EEFbRKS7_EJNS_17reference_wrapperISC_EERKNS_12placeholders4__phILi1EEEEEENS_6__bindIT_JDpT0_EEEOSP_DpOSQ_
FN:91,93,_ZNSt3__14__muB7v160006IN5boost7numeric6odeint19explicit_generic_rkILm4ELm4ENS_5arrayIdLm4EEEdS6_dNS3_13array_algebraENS3_18default_operationsENS3_17initially_resizerEEENS_5tupleIJRKS6_EEEEERT_NS_17reference_wrapperISF_EERT0_
FN:91,93,_ZNSt3__14__muB7v160006IN5boost7numeric6odeint21explicit_stepper_baseINS3_19explicit_generic_rkILm4ELm4ENS_5arrayIdLm4EEEdS7_dNS3_13array_algebraENS3_18default_operationsENS3_17initially_resizerEEELt4ES7_dS7_dS8_S9_SA_EENS_5tupleIJRKS7_EEEEERT_NS_17reference_wrapperISH_EERT0_
FNDA:4,_ZNSt3__14__muB7v160006INS_12placeholders4__phILi1EEENS_5tupleIJRKNS_5arrayIdLm4EEEEEEEENS_9enable_ifIXltLi0Esr14is_placeholderIT_EE5valueENS_12__mu_return2IXltLi0Esr14is_placeholderISB_EE5valueESB_T0_E4typeEE4typeERSB_RSD_
FNDA:2,_ZNSt3__115__apply_functorB7v160006IMN5boost7numeric6odeint19explicit_generic_rkILm4ELm4ENS_5arrayIdLm4EEEdS6_dNS3_13array_algebraENS3_18default_operationsENS3_17initially_resizerEEEFbRKS6_ENS_5tupleIJNS_17reference_wrapperISA_EENS_12placeholders4__phILi1EEEEEEJLm0ELm1EENSF_IJSC_EEEEENS_13__bind_returnIT_T0_T2_Xsr22__is_valid_bind_returnISO_SP_SQ_EE5valueEE4typeERSO_RSP_NS_15__tuple_indicesIJXspT1_EEEEOSQ_
FNDA:2,_ZNSt3__115__apply_functorB7v160006IMN5boost7numeric6odeint21explicit_stepper_baseINS3_19explicit_generic_rkILm4ELm4ENS_5arrayIdLm4EEEdS7_dNS3_13array_algebraENS3_18default_operationsENS3_17initially_resizerEEELt4ES7_dS7_dS8_S9_SA_EEFbRKS7_ENS_5tupleIJNS_17reference_wrapperISC_EENS_12placeholders4__phILi1EEEEEEJLm0ELm1EENSH_IJSE_EEEEENS_13__bind_returnIT_T0_T2_Xsr22__is_valid_bind_returnISQ_SR_SS_EE5valueEE4typeERSQ_RSR_NS_15__tuple_indicesIJXspT1_EEEEOSS_
FNDA:121,_ZNSt3__16__bindIMN5boost7numeric6odeint19explicit_generic_rkILm4ELm4ENS_5arrayIdLm4EEEdS6_dNS3_13array_algebraENS3_18default_operationsENS3_17initially_resizerEEEFbRKS6_EJNS_17reference_wrapperISA_EERKNS_12placeholders4__phILi1EEEEEC1B7v160006ISE_JSG_SL_EvEEOT_DpOT0_
FNDA:121,_ZNSt3__16__bindIMN5boost7numeric6odeint19explicit_generic_rkILm4ELm4ENS_5arrayIdLm4EEEdS6_dNS3_13array_algebraENS3_18default_operationsENS3_17initially_resizerEEEFbRKS6_EJNS_17reference_wrapperISA_EERKNS_12placeholders4__phILi1EEEEEC2B7v160006ISE_JSG_SL_EvEEOT_DpOT0_
FNDA:121,_ZNSt3__16__bindIMN5boost7numeric6odeint21explicit_stepper_baseINS3_19explicit_generic_rkILm4ELm4ENS_5arrayIdLm4EEEdS7_dNS3_13array_algebraENS3_18default_operationsENS3_17initially_resizerEEELt4ES7_dS7_dS8_S9_SA_EEFbRKS7_EJNS_17reference_wrapperISC_EERKNS_12placeholders4__phILi1EEEEEC1B7v160006ISG_JSI_SN_EvEEOT_DpOT0_
FNDA:121,_ZNSt3__16__bindIMN5boost7numeric6odeint21explicit_stepper_baseINS3_19explicit_generic_rkILm4ELm4ENS_5arrayIdLm4EEEdS7_dNS3_13array_algebraENS3_18default_operationsENS3_17initially_resizerEEELt4ES7_dS7_dS8_S9_SA_EEFbRKS7_EJNS_17reference_wrapperISC_EERKNS_12placeholders4__phILi1EEEEEC2B7v160006ISG_JSI_SN_EvEEOT_DpOT0_
FNDA:2,_ZNSt3__16__bindIMN5boost7numeric6odeint19explicit_generic_rkILm4ELm4ENS_5arrayIdLm4EEEdS6_dNS3_13array_algebraENS3_18default_operationsENS3_17initially_resizerEEEFbRKS6_EJNS_17reference_wrapperISA_EERKNS_12placeholders4__phILi1EEEEEclB7v160006IJSC_EEENS_13__bind_returnISE_NS_5tupleIJSG_SJ_EEENSP_IJDpOT_EEEXsr22__is_valid_bind_returnISE_SQ_SU_EE5valueEE4typeEST_
FNDA:2,_ZNSt3__16__bindIMN5boost7numeric6odeint21explicit_stepper_baseINS3_19explicit_generic_rkILm4ELm4ENS_5arrayIdLm4EEEdS7_dNS3_13array_algebraENS3_18default_operationsENS3_17initially_resizerEEELt4ES7_dS7_dS8_S9_SA_EEFbRKS7_EJNS_17reference_wrapperISC_EERKNS_12placeholders4__phILi1EEEEEclB7v160006IJSE_EEENS_13__bind_returnISG_NS_5tupleIJSI_SL_EEENSR_IJDpOT_EEEXsr22__is_valid_bind_returnISG_SS_SW_EE5valueEE4typeESV_
FNDA:121,_ZNSt3__14bindB7v160006IMN5boost7numeric6odeint19explicit_generic_rkILm4ELm4ENS_5arrayIdLm4EEEdS6_dNS3_13array_algebraENS3_18default_operationsENS3_17initially_resizerEEEFbRKS6_EJNS_17reference_wrapperISA_EERKNS_12placeholders4__phILi1EEEEEENS_6__bindIT_JDpT0_EEEOSN_DpOSO_
FNDA:121,_ZNSt3__14bindB7v160006IMN5boost7numeric6odeint21explicit_stepper_baseINS3_19explicit_generic_rkILm4ELm4ENS_5arrayIdLm4EEEdS7_dNS3_13array_algebraENS3_18default_operationsENS3_17initially_resizerEEELt4ES7_dS7_dS8_S9_SA_EEFbRKS7_EJNS_17reference_wrapperISC_EERKNS_12placeholders4__phILi1EEEEEENS_6__bindIT_JDpT0_EEEOSP_DpOSQ_
FNDA:2,_ZNSt3__14__muB7v160006IN5boost7numeric6odeint19explicit_generic_rkILm4ELm4ENS_5arrayIdLm4EEEdS6_dNS3_13array_algebraENS3_18default_operationsENS3_17initially_resizerEEENS_5tupleIJRKS6_EEEEERT_NS_17reference_wrapperISF_EERT0_
FNDA:2,_ZNSt3__14__muB7v160006IN5boost7numeric6odeint21explicit_stepper_baseINS3_19explicit_generic_rkILm4ELm4ENS_5arrayIdLm4EEEdS7_dNS3_13array_algebraENS3_18default_operationsENS3_17initially_resizerEEELt4ES7_dS7_dS8_S9_SA_EENS_5tupleIJRKS7_EEEEERT_NS_17reference_wrapperISH_EERT0_
FNF:13
FNH:13
DA:91,4
DA:93,4
DA:133,4
DA:135,4
DA:136,4
DA:260,4
DA:263,4
DA:286,484
DA:287,242
DA:288,484
DA:293,4
DA:295,8
DA:296,4
DA:370,242
DA:373,242
LF:15
LH:15
end_of_record
TN:
SF:/Library/Developer/CommandLineTools/SDKs/MacOSX14.2.sdk/usr/include/c++/v1/__functional/invoke.h
FN:341,343,_ZNSt3__18__invokeB7v160006IRMN5boost7numeric6odeint19explicit_generic_rkILm4ELm4ENS_5arrayIdLm4EEEdS6_dNS3_13array_algebraENS3_18default_operationsENS3_17initially_resizerEEEFbRKS6_ERSA_JSC_EvEEDTcldsclsr3stdE7declvalIT0_EEclsr3stdE7declvalIT_EEspclsr3stdE7declvalIT1_EEEEOSI_OSH_DpOSJ_
FN:341,343,_ZNSt3__18__invokeB7v160006IRMN5boost7numeric6odeint21explicit_stepper_baseINS3_19explicit_generic_rkILm4ELm4ENS_5arrayIdLm4EEEdS7_dNS3_13array_algebraENS3_18default_operationsENS3_17initially_resizerEEELt4ES7_dS7_dS8_S9_SA_EEFbRKS7_ERSC_JSE_EvEEDTcldsclsr3stdE7declvalIT0_EEclsr3stdE7declvalIT_EEspclsr3stdE7declvalIT1_EEEEOSK_OSJ_DpOSL_
FNDA:2,_ZNSt3__18__invokeB7v160006IRMN5boost7numeric6odeint19explicit_generic_rkILm4ELm4ENS_5arrayIdLm4EEEdS6_dNS3_13array_algebraENS3_18default_operationsENS3_17initially_resizerEEEFbRKS6_ERSA_JSC_EvEEDTcldsclsr3stdE7declvalIT0_EEclsr3stdE7declvalIT_EEspclsr3stdE7declvalIT1_EEEEOSI_OSH_DpOSJ_
FNDA:2,_ZNSt3__18__invokeB7v160006IRMN5boost7numeric6odeint21explicit_stepper_baseINS3_19explicit_generic_rkILm4ELm4ENS_5arrayIdLm4EEEdS7_dNS3_13array_algebraENS3_18default_operationsENS3_17initially_resizerEEELt4ES7_dS7_dS8_S9_SA_EEFbRKS7_ERSC_JSE_EvEEDTcldsclsr3stdE7declvalIT0_EEclsr3stdE7declvalIT_EEspclsr3stdE7declvalIT1_EEEEOSK_OSJ_DpOSL_
FNF:2
FNH:2
DA:341,4
DA:343,4
LF:2
LH:2
end_of_record
TN:
SF:/Library/Developer/CommandLineTools/SDKs/MacOSX14.2.sdk/usr/include/c++/v1/__functional/reference_wrapper.h
FN:43,46,_ZNSt3__117reference_wrapperIN5boost7numeric6odeint19explicit_generic_rkILm4ELm4ENS_5arrayIdLm4EEEdS6_dNS3_13array_algebraENS3_18default_operationsENS3_17initially_resizerEEEEC1B7v160006IRSA_vEEOT_
FN:43,46,_ZNSt3__117reference_wrapperIN5boost7numeric6odeint19explicit_generic_rkILm4ELm4ENS_5arrayIdLm4EEEdS6_dNS3_13array_algebraENS3_18default_operationsENS3_17initially_resizerEEEEC2B7v160006IRSA_vEEOT_
FN:43,46,_ZNSt3__117reference_wrapperIN5boost7numeric6odeint21explicit_stepper_baseINS3_19explicit_generic_rkILm4ELm4ENS_5arrayIdLm4EEEdS7_dNS3_13array_algebraENS3_18default_operationsENS3_17initially_resizerEEELt4ES7_dS7_dS8_S9_SA_EEEC1B7v160006IRSC_vEEOT_
FN:43,46,_ZNSt3__117reference_wrapperIN5boost7numeric6odeint21explicit_stepper_baseINS3_19explicit_generic_rkILm4ELm4ENS_5arrayIdLm4EEEdS7_dNS3_13array_algebraENS3_18default_operationsENS3_17initially_resizerEEELt4ES7_dS7_dS8_S9_SA_EEEC2B7v160006IRSC_vEEOT_
FN:52,52,_ZNKSt3__117reference_wrapperIN5boost7numeric6odeint19explicit_generic_rkILm4ELm4ENS_5arrayIdLm4EEEdS6_dNS3_13array_algebraENS3_18default_operationsENS3_17initially_resizerEEEE3getB7v160006Ev
FN:52,52,_ZNKSt3__117reference_wrapperIN5boost7numeric6odeint21explicit_stepper_baseINS3_19explicit_generic_rkILm4ELm4ENS_5arrayIdLm4EEEdS7_dNS3_13array_algebraENS3_18default_operationsENS3_17initially_resizerEEELt4ES7_dS7_dS8_S9_SA_EEE3getB7v160006Ev
FN:71,73,_ZNSt3__13refB7v160006IN5boost7numeric6odeint19explicit_generic_rkILm4ELm4ENS_5arrayIdLm4EEEdS6_dNS3_13array_algebraENS3_18default_operationsENS3_17initially_resizerEEEEENS_17reference_wrapperIT_EERSC_
FN:71,73,_ZNSt3__13refB7v160006IN5boost7numeric6odeint21explicit_stepper_baseINS3_19explicit_generic_rkILm4ELm4ENS_5arrayIdLm4EEEdS7_dNS3_13array_algebraENS3_18default_operationsENS3_17initially_resizerEEELt4ES7_dS7_dS8_S9_SA_EEEENS_17reference_wrapperIT_EERSE_
FNDA:121,_ZNSt3__117reference_wrapperIN5boost7numeric6odeint19explicit_generic_rkILm4ELm4ENS_5arrayIdLm4EEEdS6_dNS3_13array_algebraENS3_18default_operationsENS3_17initially_resizerEEEEC1B7v160006IRSA_vEEOT_
FNDA:121,_ZNSt3__117reference_wrapperIN5boost7numeric6odeint19explicit_generic_rkILm4ELm4ENS_5arrayIdLm4EEEdS6_dNS3_13array_algebraENS3_18default_operationsENS3_17initially_resizerEEEEC2B7v160006IRSA_vEEOT_
FNDA:121,_ZNSt3__117reference_wrapperIN5boost7numeric6odeint21explicit_stepper_baseINS3_19explicit_generic_rkILm4ELm4ENS_5arrayIdLm4EEEdS7_dNS3_13array_algebraENS3_18default_operationsENS3_17initially_resizerEEELt4ES7_dS7_dS8_S9_SA_EEEC1B7v160006IRSC_vEEOT_
FNDA:121,_ZNSt3__117reference_wrapperIN5boost7numeric6odeint21explicit_stepper_baseINS3_19explicit_generic_rkILm4ELm4ENS_5arrayIdLm4EEEdS7_dNS3_13array_algebraENS3_18default_operationsENS3_17initially_resizerEEELt4ES7_dS7_dS8_S9_SA_EEEC2B7v160006IRSC_vEEOT_
FNDA:2,_ZNKSt3__117reference_wrapperIN5boost7numeric6odeint19explicit_generic_rkILm4ELm4ENS_5arrayIdLm4EEEdS6_dNS3_13array_algebraENS3_18default_operationsENS3_17initially_resizerEEEE3getB7v160006Ev
FNDA:2,_ZNKSt3__117reference_wrapperIN5boost7numeric6odeint21explicit_stepper_baseINS3_19explicit_generic_rkILm4ELm4ENS_5arrayIdLm4EEEdS7_dNS3_13array_algebraENS3_18default_operationsENS3_17initially_resizerEEELt4ES7_dS7_dS8_S9_SA_EEE3getB7v160006Ev
FNDA:121,_ZNSt3__13refB7v160006IN5boost7numeric6odeint19explicit_generic_rkILm4ELm4ENS_5arrayIdLm4EEEdS6_dNS3_13array_algebraENS3_18default_operationsENS3_17initially_resizerEEEEENS_17reference_wrapperIT_EERSC_
FNDA:121,_ZNSt3__13refB7v160006IN5boost7numeric6odeint21explicit_stepper_baseINS3_19explicit_generic_rkILm4ELm4ENS_5arrayIdLm4EEEdS7_dNS3_13array_algebraENS3_18default_operationsENS3_17initially_resizerEEELt4ES7_dS7_dS8_S9_SA_EEEENS_17reference_wrapperIT_EERSE_
FNF:8
FNH:8
DA:43,484
DA:44,242
DA:45,242
DA:46,484
DA:52,4
DA:71,242
DA:73,242
LF:7
LH:7
end_of_record
TN:
SF:/Library/Developer/CommandLineTools/SDKs/MacOSX14.2.sdk/usr/include/c++/v1/__iterator/ostreambuf_iterator.h
FN:51,52,_ZNSt3__119ostreambuf_iteratorIcNS_11char_traitsIcEEEC1B7v160006ERNS_13basic_ostreamIcS2_EE
FN:51,52,_ZNSt3__119ostreambuf_iteratorIcNS_11char_traitsIcEEEC2B7v160006ERNS_13basic_ostreamIcS2_EE
FN:64,64,_ZNKSt3__119ostreambuf_iteratorIcNS_11char_traitsIcEEE6failedB7v160006Ev
FNDA:167,_ZNSt3__119ostreambuf_iteratorIcNS_11char_traitsIcEEEC1B7v160006ERNS_13basic_ostreamIcS2_EE
FNDA:167,_ZNSt3__119ostreambuf_iteratorIcNS_11char_traitsIcEEEC2B7v160006ERNS_13basic_ostreamIcS2_EE
FNDA:167,_ZNKSt3__119ostreambuf_iteratorIcNS_11char_traitsIcEEE6failedB7v160006Ev
FNF:3
FNH:3
DA:51,334
DA:52,334
DA:64,167
LF:3
LH:3
end_of_record
TN:
SF:/Library/Developer/CommandLineTools/SDKs/MacOSX14.2.sdk/usr/include/c++/v1/__iterator/reverse_iterator.h
FN:143,143,_ZNKSt3__116reverse_iteratorINS0_IP6EntityEEE4baseB7v160006Ev
FN:143,143,_ZNKSt3__116reverse_iteratorIP6EntityE4baseB7v160006Ev
FN:143,143,_ZNKSt3__116reverse_iteratorIPN2sf6VertexEE4baseB7v160006Ev
FN:143,143,_ZNKSt3__116reverse_iteratorIPNS_4pairIffEEE4baseB7v160006Ev
FN:145,145,_ZNKSt3__116reverse_iteratorINS0_IP6EntityEEEdeB7v160006Ev
FN:145,145,_ZNKSt3__116reverse_iteratorIP6EntityEdeB7v160006Ev
FN:145,145,_ZNKSt3__116reverse_iteratorIPN2sf6VertexEEdeB7v160006Ev
FN:145,145,_ZNKSt3__116reverse_iteratorIPNS_4pairIffEEEdeB7v160006Ev
FN:160,161,_ZNKSt3__116reverse_iteratorINS0_IP6EntityEEEptB7v160006Ev
FN:160,161,_ZNKSt3__116reverse_iteratorIP6EntityEptB7v160006Ev
FN:160,161,_ZNKSt3__116reverse_iteratorIPN2sf6VertexEEptB7v160006Ev
FN:160,161,_ZNKSt3__116reverse_iteratorIPNS_4pairIffEEEptB7v160006Ev
FN:166,166,_ZNSt3__116reverse_iteratorINS0_IP6EntityEEEppB7v160006Ev
FN:166,166,_ZNSt3__116reverse_iteratorIP6EntityEppB7v160006Ev
FN:166,166,_ZNSt3__116reverse_iteratorIPN2sf6VertexEEppB7v160006Ev
FN:166,166,_ZNSt3__116reverse_iteratorIPNS_4pairIffEEEppB7v160006Ev
FN:170,170,_ZNSt3__116reverse_iteratorIP6EntityEmmB7v160006Ev
FN:235,242,_ZNSt3__1neB7v160006INS_16reverse_iteratorIP6EntityEES4_EEbRKNS1_IT_EERKNS1_IT0_EE
FN:235,242,_ZNSt3__1neB7v160006IP6EntityS2_EEbRKNS_16reverse_iteratorIT_EERKNS3_IT0_EE
FN:235,242,_ZNSt3__1neB7v160006IPN2sf6VertexES3_EEbRKNS_16reverse_iteratorIT_EERKNS4_IT0_EE
FN:235,242,_ZNSt3__1neB7v160006IPNS_4pairIffEES3_EEbRKNS_16reverse_iteratorIT_EERKNS4_IT0_EE
FN:96,96,_ZNSt3__116reverse_iteratorINS0_IP6EntityEEEC1B7v160006ES3_
FN:96,96,_ZNSt3__116reverse_iteratorINS0_IP6EntityEEEC2B7v160006ES3_
FN:96,96,_ZNSt3__116reverse_iteratorIP6EntityEC1B7v160006ES2_
FN:96,96,_ZNSt3__116reverse_iteratorIP6EntityEC2B7v160006ES2_
FN:96,96,_ZNSt3__116reverse_iteratorIPN2sf6VertexEEC1B7v160006ES3_
FN:96,96,_ZNSt3__116reverse_iteratorIPN2sf6VertexEEC2B7v160006ES3_
FN:96,96,_ZNSt3__116reverse_iteratorIPNS_4pairIffEEEC1B7v160006ES3_
FN:96,96,_ZNSt3__116reverse_iteratorIPNS_4pairIffEEEC2B7v160006ES3_
FNDA:0,_ZNKSt3__116reverse_iteratorINS0_IP6EntityEEE4baseB7v160006Ev
FNDA:26,_ZNKSt3__116reverse_iteratorIP6EntityE4baseB7v160006Ev
FNDA:0,_ZNKSt3__116reverse_iteratorIPN2sf6VertexEE4baseB7v160006Ev
FNDA:0,_ZNKSt3__116reverse_iteratorIPNS_4pairIffEEE4baseB7v160006Ev
FNDA:0,_ZNKSt3__116reverse_iteratorINS0_IP6EntityEEEdeB7v160006Ev
FNDA:14,_ZNKSt3__116reverse_iteratorIP6EntityEdeB7v160006Ev
FNDA:0,_ZNKSt3__116reverse_iteratorIPN2sf6VertexEEdeB7v160006Ev
FNDA:0,_ZNKSt3__116reverse_iteratorIPNS_4pairIffEEEdeB7v160006Ev
FNDA:0,_ZNKSt3__116reverse_iteratorINS0_IP6EntityEEEptB7v160006Ev
FNDA:7,_ZNKSt3__116reverse_iteratorIP6EntityEptB7v160006Ev
FNDA:0,_ZNKSt3__116reverse_iteratorIPN2sf6VertexEEptB7v160006Ev
FNDA:0,_ZNKSt3__116reverse_iteratorIPNS_4pairIffEEEptB7v160006Ev
FNDA:0,_ZNSt3__116reverse_iteratorINS0_IP6EntityEEEppB7v160006Ev
FNDA:14,_ZNSt3__116reverse_iteratorIP6EntityEppB7v160006Ev
FNDA:0,_ZNSt3__116reverse_iteratorIPN2sf6VertexEEppB7v160006Ev
FNDA:0,_ZNSt3__116reverse_iteratorIPNS_4pairIffEEEppB7v160006Ev
FNDA:0,_ZNSt3__116reverse_iteratorIP6EntityEmmB7v160006Ev
FNDA:0,_ZNSt3__1neB7v160006INS_16reverse_iteratorIP6EntityEES4_EEbRKNS1_IT_EERKNS1_IT0_EE
FNDA:11,_ZNSt3__1neB7v160006IP6EntityS2_EEbRKNS_16reverse_iteratorIT_EERKNS3_IT0_EE
FNDA:0,_ZNSt3__1neB7v160006IPN2sf6VertexES3_EEbRKNS_16reverse_iteratorIT_EERKNS4_IT0_EE
FNDA:0,_ZNSt3__1neB7v160006IPNS_4pairIffEES3_EEbRKNS_16reverse_iteratorIT_EERKNS4_IT0_EE
FNDA:0,_ZNSt3__116reverse_iteratorINS0_IP6EntityEEEC1B7v160006ES3_
FNDA:0,_ZNSt3__116reverse_iteratorINS0_IP6EntityEEEC2B7v160006ES3_
FNDA:12,_ZNSt3__116reverse_iteratorIP6EntityEC1B7v160006ES2_
FNDA:12,_ZNSt3__116reverse_iteratorIP6EntityEC2B7v160006ES2_
FNDA:0,_ZNSt3__116reverse_iteratorIPN2sf6VertexEEC1B7v160006ES3_
FNDA:0,_ZNSt3__116reverse_iteratorIPN2sf6VertexEEC2B7v160006ES3_
FNDA:0,_ZNSt3__116reverse_iteratorIPNS_4pairIffEEEC1B7v160006ES3_
FNDA:0,_ZNSt3__116reverse_iteratorIPNS_4pairIffEEEC2B7v160006ES3_
FNF:29
FNH:7
DA:96,24
DA:143,26
DA:145,14
DA:160,7
DA:161,7
DA:166,14
DA:170,0
DA:235,11
DA:242,11
LF:9
LH:8
end_of_record
TN:
SF:/Library/Developer/CommandLineTools/SDKs/MacOSX14.2.sdk/usr/include/c++/v1/__iterator/wrap_iter.h
FN:136,136,_ZNKSt3__111__wrap_iterIP6EntityE4baseB7v160006Ev
FN:140,147,_ZNSt3__111__wrap_iterIP6EntityEC1B7v160006EPKvS2_
FN:140,147,_ZNSt3__111__wrap_iterIP6EntityEC2B7v160006EPKvS2_
FN:157,159,_ZNSt3__1eqB7v160006IP6EntityEEbRKNS_11__wrap_iterIT_EES7_
FN:189,191,_ZNSt3__1neB7v160006IP6EntityEEbRKNS_11__wrap_iterIT_EES7_
FN:85,89,_ZNKSt3__111__wrap_iterIP6EntityEdeB7v160006Ev
FN:97,102,_ZNSt3__111__wrap_iterIP6EntityEppB7v160006Ev
FNDA:0,_ZNKSt3__111__wrap_iterIP6EntityE4baseB7v160006Ev
FNDA:0,_ZNSt3__111__wrap_iterIP6EntityEC1B7v160006EPKvS2_
FNDA:0,_ZNSt3__111__wrap_iterIP6EntityEC2B7v160006EPKvS2_
FNDA:0,_ZNSt3__1eqB7v160006IP6EntityEEbRKNS_11__wrap_iterIT_EES7_
FNDA:0,_ZNSt3__1neB7v160006IP6EntityEEbRKNS_11__wrap_iterIT_EES7_
FNDA:0,_ZNKSt3__111__wrap_iterIP6EntityEdeB7v160006Ev
FNDA:0,_ZNSt3__111__wrap_iterIP6EntityEppB7v160006Ev
FNF:7
FNH:0
DA:85,0
DA:89,0
DA:97,0
DA:101,0
DA:102,0
DA:136,0
DA:140,0
DA:141,0
DA:147,0
DA:157,0
DA:159,0
DA:189,0
DA:191,0
LF:13
LH:0
end_of_record
TN:
SF:/Library/Developer/CommandLineTools/SDKs/MacOSX14.2.sdk/usr/include/c++/v1/__locale
FN:256,_ZNSt3__19use_facetB7v160006INS_5ctypeIcEEEERKT_RKNS_6localeE
FN:738,_ZNKSt3__15ctypeIcE5widenB7v160006Ec
FNDA:11,_ZNSt3__19use_facetB7v160006INS_5ctypeIcEEEERKT_RKNS_6localeE
FNDA:11,_ZNKSt3__15ctypeIcE5widenB7v160006Ec
FNF:2
FNH:2
DA:256,11
DA:258,11
DA:738,11
DA:740,11
LF:4
LH:4
end_of_record
TN:
SF:/Library/Developer/CommandLineTools/SDKs/MacOSX14.2.sdk/usr/include/c++/v1/__memory/allocate_at_least.h
FN:54,55,_ZNSt3__119__allocate_at_leastB7v160006INS_9allocatorI6EntityEEEENS_19__allocation_resultINS_16allocator_traitsIT_E7pointerEEERS6_m
FN:54,55,_ZNSt3__119__allocate_at_leastB7v160006INS_9allocatorIN2sf6VertexEEEEENS_19__allocation_resultINS_16allocator_traitsIT_E7pointerEEERS7_m
FN:54,55,_ZNSt3__119__allocate_at_leastB7v160006INS_9allocatorINS_4pairIffEEEEEENS_19__allocation_resultINS_16allocator_traitsIT_E7pointerEEERS7_m
FN:54,55,_ZNSt3__119__allocate_at_leastB7v160006INS_9allocatorIfEEEENS_19__allocation_resultINS_16allocator_traitsIT_E7pointerEEERS5_m
FNDA:4,_ZNSt3__119__allocate_at_leastB7v160006INS_9allocatorI6EntityEEEENS_19__allocation_resultINS_16allocator_traitsIT_E7pointerEEERS6_m
FNDA:7,_ZNSt3__119__allocate_at_leastB7v160006INS_9allocatorIN2sf6VertexEEEEENS_19__allocation_resultINS_16allocator_traitsIT_E7pointerEEERS7_m
FNDA:1,_ZNSt3__119__allocate_at_leastB7v160006INS_9allocatorINS_4pairIffEEEEEENS_19__allocation_resultINS_16allocator_traitsIT_E7pointerEEERS7_m
FNDA:1,_ZNSt3__119__allocate_at_leastB7v160006INS_9allocatorIfEEEENS_19__allocation_resultINS_16allocator_traitsIT_E7pointerEEERS5_m
FNF:4
FNH:4
DA:54,13
DA:55,13
LF:2
LH:2
end_of_record
TN:
SF:/Library/Developer/CommandLineTools/SDKs/MacOSX14.2.sdk/usr/include/c++/v1/__memory/allocator.h
FN:102,102,_ZNSt3__19allocatorI6EntityEC2B7v160006Ev
FN:102,102,_ZNSt3__19allocatorINS_4pairIffEEEC2B7v160006Ev
FN:102,102,_ZNSt3__19allocatorIcEC2B7v160006Ev
FN:102,102,_ZNSt3__19allocatorIfEC2B7v160006Ev
FN:109,115,_ZNSt3__19allocatorI6EntityE8allocateB7v160006Em
FN:109,115,_ZNSt3__19allocatorIN2sf6VertexEE8allocateB7v160006Em
FN:109,115,_ZNSt3__19allocatorINS_4pairIffEEE8allocateB7v160006Em
FN:109,115,_ZNSt3__19allocatorIfE8allocateB7v160006Em
FN:127,133,_ZNSt3__19allocatorI6EntityE10deallocateB7v160006EPS1_m
FN:127,133,_ZNSt3__19allocatorIN2sf6VertexEE10deallocateB7v160006EPS2_m
FN:127,133,_ZNSt3__19allocatorINS_4pairIffEEE10deallocateB7v160006EPS2_m
FN:127,133,_ZNSt3__19allocatorIfE10deallocateB7v160006EPfm
FN:127,133,_ZNSt3__19allocatorIjE10deallocateB7v160006EPjm
FN:161,162,_ZNKSt3__19allocatorI6EntityE8max_sizeB7v160006Ev
FN:161,162,_ZNKSt3__19allocatorIN2sf6VertexEE8max_sizeB7v160006Ev
FN:161,162,_ZNKSt3__19allocatorINS_4pairIffEEE8max_sizeB7v160006Ev
FN:161,162,_ZNKSt3__19allocatorIfE8max_sizeB7v160006Ev
FN:167,169,_ZNSt3__19allocatorI6EntityE9constructB7v160006IS1_JRKS1_EEEvPT_DpOT0_
FN:167,169,_ZNSt3__19allocatorI6EntityE9constructB7v160006IS1_JfRKN2sf5ColorEdbbEEEvPT_DpOT0_
FN:167,169,_ZNSt3__19allocatorIN2sf6VertexEE9constructB7v160006IS2_JRS2_EEEvPT_DpOT0_
FN:167,169,_ZNSt3__19allocatorINS_4pairIffEEE9constructB7v160006IS2_JRKS2_EEEvPT_DpOT0_
FN:172,174,_ZNSt3__19allocatorI6EntityE7destroyB7v160006EPS1_
FN:172,174,_ZNSt3__19allocatorIN2sf6VertexEE7destroyB7v160006EPS2_
FN:172,174,_ZNSt3__19allocatorINS_4pairIffEEE7destroyB7v160006EPS2_
FN:172,174,_ZNSt3__19allocatorIfE7destroyB7v160006EPf
FN:81,81,_ZNSt3__116__non_trivial_ifILb1ENS_9allocatorI6EntityEEEC2B7v160006Ev
FN:81,81,_ZNSt3__116__non_trivial_ifILb1ENS_9allocatorINS_4pairIffEEEEEC2B7v160006Ev
FN:81,81,_ZNSt3__116__non_trivial_ifILb1ENS_9allocatorIcEEEC2B7v160006Ev
FN:81,81,_ZNSt3__116__non_trivial_ifILb1ENS_9allocatorIfEEEC2B7v160006Ev
FNDA:1,_ZNSt3__19allocatorI6EntityEC2B7v160006Ev
FNDA:1,_ZNSt3__19allocatorINS_4pairIffEEEC2B7v160006Ev
FNDA:240,_ZNSt3__19allocatorIcEC2B7v160006Ev
FNDA:1,_ZNSt3__19allocatorIfEC2B7v160006Ev
FNDA:4,_ZNSt3__19allocatorI6EntityE8allocateB7v160006Em
FNDA:7,_ZNSt3__19allocatorIN2sf6VertexEE8allocateB7v160006Em
FNDA:1,_ZNSt3__19allocatorINS_4pairIffEEE8allocateB7v160006Em
FNDA:1,_ZNSt3__19allocatorIfE8allocateB7v160006Em
FNDA:4,_ZNSt3__19allocatorI6EntityE10deallocateB7v160006EPS1_m
FNDA:1,_ZNSt3__19allocatorIN2sf6VertexEE10deallocateB7v160006EPS2_m
FNDA:1,_ZNSt3__19allocatorINS_4pairIffEEE10deallocateB7v160006EPS2_m
FNDA:1,_ZNSt3__19allocatorIfE10deallocateB7v160006EPfm
FNDA:1,_ZNSt3__19allocatorIjE10deallocateB7v160006EPjm
FNDA:8,_ZNKSt3__19allocatorI6EntityE8max_sizeB7v160006Ev
FNDA:14,_ZNKSt3__19allocatorIN2sf6VertexEE8max_sizeB7v160006Ev
FNDA:2,_ZNKSt3__19allocatorINS_4pairIffEEE8max_sizeB7v160006Ev
FNDA:2,_ZNKSt3__19allocatorIfE8max_sizeB7v160006Ev
FNDA:7,_ZNSt3__19allocatorI6EntityE9constructB7v160006IS1_JRKS1_EEEvPT_DpOT0_
FNDA:6,_ZNSt3__19allocatorI6EntityE9constructB7v160006IS1_JfRKN2sf5ColorEdbbEEEvPT_DpOT0_
FNDA:224,_ZNSt3__19allocatorIN2sf6VertexEE9constructB7v160006IS2_JRS2_EEEvPT_DpOT0_
FNDA:3,_ZNSt3__19allocatorINS_4pairIffEEE9constructB7v160006IS2_JRKS2_EEEvPT_DpOT0_
FNDA:13,_ZNSt3__19allocatorI6EntityE7destroyB7v160006EPS1_
FNDA:60,_ZNSt3__19allocatorIN2sf6VertexEE7destroyB7v160006EPS2_
FNDA:3,_ZNSt3__19allocatorINS_4pairIffEEE7destroyB7v160006EPS2_
FNDA:3,_ZNSt3__19allocatorIfE7destroyB7v160006EPf
FNDA:1,_ZNSt3__116__non_trivial_ifILb1ENS_9allocatorI6EntityEEEC2B7v160006Ev
FNDA:1,_ZNSt3__116__non_trivial_ifILb1ENS_9allocatorINS_4pairIffEEEEEC2B7v160006Ev
FNDA:240,_ZNSt3__116__non_trivial_ifILb1ENS_9allocatorIcEEEC2B7v160006Ev
FNDA:1,_ZNSt3__116__non_trivial_ifILb1ENS_9allocatorIfEEEC2B7v160006Ev
FNF:29
FNH:29
DA:81,243
DA:102,243
DA:109,13
DA:110,13
DA:111,0
DA:115,13
DA:127,8
DA:131,8
DA:133,8
DA:161,26
DA:162,26
DA:167,240
DA:168,240
DA:169,240
DA:172,79
DA:173,79
DA:174,79
LF:17
LH:16
end_of_record
TN:
SF:/Library/Developer/CommandLineTools/SDKs/MacOSX14.2.sdk/usr/include/c++/v1/__memory/allocator_traits.h
FN:287,289,_ZNSt3__116allocator_traitsINS_9allocatorI6EntityEEE10deallocateB7v160006ERS3_PS2_m
FN:287,289,_ZNSt3__116allocator_traitsINS_9allocatorIN2sf6VertexEEEE10deallocateB7v160006ERS4_PS3_m
FN:287,289,_ZNSt3__116allocator_traitsINS_9allocatorINS_4pairIffEEEEE10deallocateB7v160006ERS4_PS3_m
FN:287,289,_ZNSt3__116allocator_traitsINS_9allocatorIfEEE10deallocateB7v160006ERS2_Pfm
FN:287,289,_ZNSt3__116allocator_traitsINS_9allocatorIjEEE10deallocateB7v160006ERS2_Pjm
FN:294,298,_ZNSt3__116allocator_traitsINS_9allocatorI6EntityEEE9constructB7v160006IS2_JRKS2_EvEEvRS3_PT_DpOT0_
FN:294,298,_ZNSt3__116allocator_traitsINS_9allocatorI6EntityEEE9constructB7v160006IS2_JfRKN2sf5ColorEdbbEvEEvRS3_PT_DpOT0_
FN:294,298,_ZNSt3__116allocator_traitsINS_9allocatorIN2sf6VertexEEEE9constructB7v160006IS3_JRS3_EvEEvRS4_PT_DpOT0_
FN:294,298,_ZNSt3__116allocator_traitsINS_9allocatorINS_4pairIffEEEEE9constructB7v160006IS3_JRKS3_EvEEvRS4_PT_DpOT0_
FN:313,317,_ZNSt3__116allocator_traitsINS_9allocatorI6EntityEEE7destroyB7v160006IS2_vEEvRS3_PT_
FN:313,317,_ZNSt3__116allocator_traitsINS_9allocatorIN2sf6VertexEEEE7destroyB7v160006IS3_vEEvRS4_PT_
FN:313,317,_ZNSt3__116allocator_traitsINS_9allocatorINS_4pairIffEEEEE7destroyB7v160006IS3_vEEvRS4_PT_
FN:313,317,_ZNSt3__116allocator_traitsINS_9allocatorIfEEE7destroyB7v160006IfvEEvRS2_PT_
FN:332,334,_ZNSt3__116allocator_traitsINS_9allocatorI6EntityEEE8max_sizeB7v160006IS3_vEEmRKS3_
FN:332,334,_ZNSt3__116allocator_traitsINS_9allocatorIN2sf6VertexEEEE8max_sizeB7v160006IS4_vEEmRKS4_
FN:332,334,_ZNSt3__116allocator_traitsINS_9allocatorINS_4pairIffEEEEE8max_sizeB7v160006IS4_vEEmRKS4_
FN:332,334,_ZNSt3__116allocator_traitsINS_9allocatorIfEEE8max_sizeB7v160006IS2_vEEmRKS2_
FN:353,354,_ZNSt3__116allocator_traitsINS_9allocatorIN2sf6VertexEEEE37select_on_container_copy_constructionB7v160006IS4_vvEES4_RKS4_
FNDA:4,_ZNSt3__116allocator_traitsINS_9allocatorI6EntityEEE10deallocateB7v160006ERS3_PS2_m
FNDA:1,_ZNSt3__116allocator_traitsINS_9allocatorIN2sf6VertexEEEE10deallocateB7v160006ERS4_PS3_m
FNDA:1,_ZNSt3__116allocator_traitsINS_9allocatorINS_4pairIffEEEEE10deallocateB7v160006ERS4_PS3_m
FNDA:1,_ZNSt3__116allocator_traitsINS_9allocatorIfEEE10deallocateB7v160006ERS2_Pfm
FNDA:1,_ZNSt3__116allocator_traitsINS_9allocatorIjEEE10deallocateB7v160006ERS2_Pjm
FNDA:7,_ZNSt3__116allocator_traitsINS_9allocatorI6EntityEEE9constructB7v160006IS2_JRKS2_EvEEvRS3_PT_DpOT0_
FNDA:6,_ZNSt3__116allocator_traitsINS_9allocatorI6EntityEEE9constructB7v160006IS2_JfRKN2sf5ColorEdbbEvEEvRS3_PT_DpOT0_
FNDA:224,_ZNSt3__116allocator_traitsINS_9allocatorIN2sf6VertexEEEE9constructB7v160006IS3_JRS3_EvEEvRS4_PT_DpOT0_
FNDA:3,_ZNSt3__116allocator_traitsINS_9allocatorINS_4pairIffEEEEE9constructB7v160006IS3_JRKS3_EvEEvRS4_PT_DpOT0_
FNDA:13,_ZNSt3__116allocator_traitsINS_9allocatorI6EntityEEE7destroyB7v160006IS2_vEEvRS3_PT_
FNDA:60,_ZNSt3__116allocator_traitsINS_9allocatorIN2sf6VertexEEEE7destroyB7v160006IS3_vEEvRS4_PT_
FNDA:3,_ZNSt3__116allocator_traitsINS_9allocatorINS_4pairIffEEEEE7destroyB7v160006IS3_vEEvRS4_PT_
FNDA:3,_ZNSt3__116allocator_traitsINS_9allocatorIfEEE7destroyB7v160006IfvEEvRS2_PT_
FNDA:8,_ZNSt3__116allocator_traitsINS_9allocatorI6EntityEEE8max_sizeB7v160006IS3_vEEmRKS3_
FNDA:14,_ZNSt3__116allocator_traitsINS_9allocatorIN2sf6VertexEEEE8max_sizeB7v160006IS4_vEEmRKS4_
FNDA:2,_ZNSt3__116allocator_traitsINS_9allocatorINS_4pairIffEEEEE8max_sizeB7v160006IS4_vEEmRKS4_
FNDA:2,_ZNSt3__116allocator_traitsINS_9allocatorIfEEE8max_sizeB7v160006IS2_vEEmRKS2_
FNDA:14,_ZNSt3__116allocator_traitsINS_9allocatorIN2sf6VertexEEEE37select_on_container_copy_constructionB7v160006IS4_vvEES4_RKS4_
FNF:18
FNH:18
DA:287,8
DA:288,8
DA:289,8
DA:294,240
DA:296,240
DA:298,240
DA:313,79
DA:315,79
DA:317,79
DA:332,26
DA:334,26
DA:353,14
DA:354,14
LF:13
LH:13
end_of_record
TN:
SF:/Library/Developer/CommandLineTools/SDKs/MacOSX14.2.sdk/usr/include/c++/v1/__memory/compressed_pair.h
FN:119,119,_ZNSt3__117__compressed_pairINS_12basic_stringIcNS_11char_traitsIcEENS_9allocatorIcEEE5__repES5_EC1B7v160006INS_18__default_init_tagESA_EEOT_OT0_
FN:119,119,_ZNSt3__117__compressed_pairINS_12basic_stringIcNS_11char_traitsIcEENS_9allocatorIcEEE5__repES5_EC2B7v160006INS_18__default_init_tagESA_EEOT_OT0_
FN:119,119,_ZNSt3__117__compressed_pairIP6EntityNS_9allocatorIS1_EEEC1B7v160006IDnNS_18__default_init_tagEEEOT_OT0_
FN:119,119,_ZNSt3__117__compressed_pairIP6EntityNS_9allocatorIS1_EEEC2B7v160006IDnNS_18__default_init_tagEEEOT_OT0_
FN:119,119,_ZNSt3__117__compressed_pairIP6EntityRNS_9allocatorIS1_EEEC1B7v160006IDnS5_EEOT_OT0_
FN:119,119,_ZNSt3__117__compressed_pairIP6EntityRNS_9allocatorIS1_EEEC2B7v160006IDnS5_EEOT_OT0_
FN:119,119,_ZNSt3__117__compressed_pairIPN2sf6VertexENS_9allocatorIS2_EEEC1B7v160006IDnS5_EEOT_OT0_
FN:119,119,_ZNSt3__117__compressed_pairIPN2sf6VertexENS_9allocatorIS2_EEEC2B7v160006IDnS5_EEOT_OT0_
FN:119,119,_ZNSt3__117__compressed_pairIPNS_4pairIffEENS_9allocatorIS2_EEEC1B7v160006IDnNS_18__default_init_tagEEEOT_OT0_
FN:119,119,_ZNSt3__117__compressed_pairIPNS_4pairIffEENS_9allocatorIS2_EEEC2B7v160006IDnNS_18__default_init_tagEEEOT_OT0_
FN:119,119,_ZNSt3__117__compressed_pairIPfNS_9allocatorIfEEEC1B7v160006IDnNS_18__default_init_tagEEEOT_OT0_
FN:119,119,_ZNSt3__117__compressed_pairIPfNS_9allocatorIfEEEC2B7v160006IDnNS_18__default_init_tagEEEOT_OT0_
FN:131,132,_ZNSt3__117__compressed_pairINS_12basic_stringIcNS_11char_traitsIcEENS_9allocatorIcEEE5__repES5_E5firstB7v160006Ev
FN:131,132,_ZNSt3__117__compressed_pairINS_12basic_stringIjNS_11char_traitsIjEENS_9allocatorIjEEE5__repES5_E5firstB7v160006Ev
FN:131,132,_ZNSt3__117__compressed_pairIP6EntityNS_9allocatorIS1_EEE5firstB7v160006Ev
FN:131,132,_ZNSt3__117__compressed_pairIP6EntityRNS_9allocatorIS1_EEE5firstB7v160006Ev
FN:131,132,_ZNSt3__117__compressed_pairIPN2sf6VertexENS_9allocatorIS2_EEE5firstB7v160006Ev
FN:131,132,_ZNSt3__117__compressed_pairIPNS_4pairIffEENS_9allocatorIS2_EEE5firstB7v160006Ev
FN:131,132,_ZNSt3__117__compressed_pairIPfNS_9allocatorIfEEE5firstB7v160006Ev
FN:136,137,_ZNKSt3__117__compressed_pairINS_12basic_stringIcNS_11char_traitsIcEENS_9allocatorIcEEE5__repES5_E5firstB7v160006Ev
FN:136,137,_ZNKSt3__117__compressed_pairINS_12basic_stringIjNS_11char_traitsIjEENS_9allocatorIjEEE5__repES5_E5firstB7v160006Ev
FN:136,137,_ZNKSt3__117__compressed_pairIP6EntityNS_9allocatorIS1_EEE5firstB7v160006Ev
FN:136,137,_ZNKSt3__117__compressed_pairIP6EntityRNS_9allocatorIS1_EEE5firstB7v160006Ev
FN:136,137,_ZNKSt3__117__compressed_pairIPN2sf6VertexENS_9allocatorIS2_EEE5firstB7v160006Ev
FN:136,137,_ZNKSt3__117__compressed_pairIPNS_4pairIffEENS_9allocatorIS2_EEE5firstB7v160006Ev
FN:136,137,_ZNKSt3__117__compressed_pairIPfNS_9allocatorIfEEE5firstB7v160006Ev
FN:141,142,_ZNSt3__117__compressed_pairINS_12basic_stringIjNS_11char_traitsIjEENS_9allocatorIjEEE5__repES5_E6secondB7v160006Ev
FN:141,142,_ZNSt3__117__compressed_pairIP6EntityNS_9allocatorIS1_EEE6secondB7v160006Ev
FN:141,142,_ZNSt3__117__compressed_pairIP6EntityRNS_9allocatorIS1_EEE6secondB7v160006Ev
FN:141,142,_ZNSt3__117__compressed_pairIPN2sf6VertexENS_9allocatorIS2_EEE6secondB7v160006Ev
FN:141,142,_ZNSt3__117__compressed_pairIPNS_4pairIffEENS_9allocatorIS2_EEE6secondB7v160006Ev
FN:141,142,_ZNSt3__117__compressed_pairIPfNS_9allocatorIfEEE6secondB7v160006Ev
FN:146,147,_ZNKSt3__117__compressed_pairIP6EntityNS_9allocatorIS1_EEE6secondB7v160006Ev
FN:146,147,_ZNKSt3__117__compressed_pairIPN2sf6VertexENS_9allocatorIS2_EEE6secondB7v160006Ev
FN:146,147,_ZNKSt3__117__compressed_pairIPNS_4pairIffEENS_9allocatorIS2_EEE6secondB7v160006Ev
FN:146,147,_ZNKSt3__117__compressed_pairIPfNS_9allocatorIfEEE6secondB7v160006Ev
FN:46,46,_ZNSt3__122__compressed_pair_elemINS_12basic_stringIcNS_11char_traitsIcEENS_9allocatorIcEEE5__repELi0ELb0EEC2B7v160006ENS_18__default_init_tagE
FN:51,51,_ZNSt3__122__compressed_pair_elemIP6EntityLi0ELb0EEC2B7v160006IDnvEEOT_
FN:51,51,_ZNSt3__122__compressed_pair_elemIPN2sf6VertexELi0ELb0EEC2B7v160006IDnvEEOT_
FN:51,51,_ZNSt3__122__compressed_pair_elemIPNS_4pairIffEELi0ELb0EEC2B7v160006IDnvEEOT_
FN:51,51,_ZNSt3__122__compressed_pair_elemIPfLi0ELb0EEC2B7v160006IDnvEEOT_
FN:51,51,_ZNSt3__122__compressed_pair_elemIRNS_9allocatorI6EntityEELi1ELb0EEC2B7v160006IS4_vEEOT_
FN:60,60,_ZNSt3__122__compressed_pair_elemINS_12basic_stringIcNS_11char_traitsIcEENS_9allocatorIcEEE5__repELi0ELb0EE5__getB7v160006Ev
FN:60,60,_ZNSt3__122__compressed_pair_elemINS_12basic_stringIjNS_11char_traitsIjEENS_9allocatorIjEEE5__repELi0ELb0EE5__getB7v160006Ev
FN:60,60,_ZNSt3__122__compressed_pair_elemIP6EntityLi0ELb0EE5__getB7v160006Ev
FN:60,60,_ZNSt3__122__compressed_pair_elemIPN2sf6VertexELi0ELb0EE5__getB7v160006Ev
FN:60,60,_ZNSt3__122__compressed_pair_elemIPNS_4pairIffEELi0ELb0EE5__getB7v160006Ev
FN:60,60,_ZNSt3__122__compressed_pair_elemIPfLi0ELb0EE5__getB7v160006Ev
FN:60,60,_ZNSt3__122__compressed_pair_elemIRNS_9allocatorI6EntityEELi1ELb0EE5__getB7v160006Ev
FN:61,61,_ZNKSt3__122__compressed_pair_elemINS_12basic_stringIcNS_11char_traitsIcEENS_9allocatorIcEEE5__repELi0ELb0EE5__getB7v160006Ev
FN:61,61,_ZNKSt3__122__compressed_pair_elemINS_12basic_stringIjNS_11char_traitsIjEENS_9allocatorIjEEE5__repELi0ELb0EE5__getB7v160006Ev
FN:61,61,_ZNKSt3__122__compressed_pair_elemIP6EntityLi0ELb0EE5__getB7v160006Ev
FN:61,61,_ZNKSt3__122__compressed_pair_elemIPN2sf6VertexELi0ELb0EE5__getB7v160006Ev
FN:61,61,_ZNKSt3__122__compressed_pair_elemIPNS_4pairIffEELi0ELb0EE5__getB7v160006Ev
FN:61,61,_ZNKSt3__122__compressed_pair_elemIPfLi0ELb0EE5__getB7v160006Ev
FN:75,75,_ZNSt3__122__compressed_pair_elemINS_9allocatorI6EntityEELi1ELb1EEC2B7v160006ENS_18__default_init_tagE
FN:75,75,_ZNSt3__122__compressed_pair_elemINS_9allocatorINS_4pairIffEEEELi1ELb1EEC2B7v160006ENS_18__default_init_tagE
FN:75,75,_ZNSt3__122__compressed_pair_elemINS_9allocatorIcEELi1ELb1EEC2B7v160006ENS_18__default_init_tagE
FN:75,75,_ZNSt3__122__compressed_pair_elemINS_9allocatorIfEELi1ELb1EEC2B7v160006ENS_18__default_init_tagE
FN:80,80,_ZNSt3__122__compressed_pair_elemINS_9allocatorIN2sf6VertexEEELi1ELb1EEC2B7v160006IS4_vEEOT_
FN:89,89,_ZNSt3__122__compressed_pair_elemINS_9allocatorI6EntityEELi1ELb1EE5__getB7v160006Ev
FN:89,89,_ZNSt3__122__compressed_pair_elemINS_9allocatorIN2sf6VertexEEELi1ELb1EE5__getB7v160006Ev
FN:89,89,_ZNSt3__122__compressed_pair_elemINS_9allocatorINS_4pairIffEEEELi1ELb1EE5__getB7v160006Ev
FN:89,89,_ZNSt3__122__compressed_pair_elemINS_9allocatorIfEELi1ELb1EE5__getB7v160006Ev
FN:89,89,_ZNSt3__122__compressed_pair_elemINS_9allocatorIjEELi1ELb1EE5__getB7v160006Ev
FN:90,90,_ZNKSt3__122__compressed_pair_elemINS_9allocatorI6EntityEELi1ELb1EE5__getB7v160006Ev
FN:90,90,_ZNKSt3__122__compressed_pair_elemINS_9allocatorIN2sf6VertexEEELi1ELb1EE5__getB7v160006Ev
FN:90,90,_ZNKSt3__122__compressed_pair_elemINS_9allocatorINS_4pairIffEEEELi1ELb1EE5__getB7v160006Ev
FN:90,90,_ZNKSt3__122__compressed_pair_elemINS_9allocatorIfEELi1ELb1EE5__getB7v160006Ev
FNDA:237,_ZNSt3__117__compressed_pairINS_12basic_stringIcNS_11char_traitsIcEENS_9allocatorIcEEE5__repES5_EC1B7v160006INS_18__default_init_tagESA_EEOT_OT0_
FNDA:237,_ZNSt3__117__compressed_pairINS_12basic_stringIcNS_11char_traitsIcEENS_9allocatorIcEEE5__repES5_EC2B7v160006INS_18__default_init_tagESA_EEOT_OT0_
FNDA:1,_ZNSt3__117__compressed_pairIP6EntityNS_9allocatorIS1_EEEC1B7v160006IDnNS_18__default_init_tagEEEOT_OT0_
FNDA:1,_ZNSt3__117__compressed_pairIP6EntityNS_9allocatorIS1_EEEC2B7v160006IDnNS_18__default_init_tagEEEOT_OT0_
FNDA:4,_ZNSt3__117__compressed_pairIP6EntityRNS_9allocatorIS1_EEEC1B7v160006IDnS5_EEOT_OT0_
FNDA:4,_ZNSt3__117__compressed_pairIP6EntityRNS_9allocatorIS1_EEEC2B7v160006IDnS5_EEOT_OT0_
FNDA:14,_ZNSt3__117__compressed_pairIPN2sf6VertexENS_9allocatorIS2_EEEC1B7v160006IDnS5_EEOT_OT0_
FNDA:14,_ZNSt3__117__compressed_pairIPN2sf6VertexENS_9allocatorIS2_EEEC2B7v160006IDnS5_EEOT_OT0_
FNDA:1,_ZNSt3__117__compressed_pairIPNS_4pairIffEENS_9allocatorIS2_EEEC1B7v160006IDnNS_18__default_init_tagEEEOT_OT0_
FNDA:1,_ZNSt3__117__compressed_pairIPNS_4pairIffEENS_9allocatorIS2_EEEC2B7v160006IDnNS_18__default_init_tagEEEOT_OT0_
FNDA:1,_ZNSt3__117__compressed_pairIPfNS_9allocatorIfEEEC1B7v160006IDnNS_18__default_init_tagEEEOT_OT0_
FNDA:1,_ZNSt3__117__compressed_pairIPfNS_9allocatorIfEEEC2B7v160006IDnNS_18__default_init_tagEEEOT_OT0_
FNDA:480,_ZNSt3__117__compressed_pairINS_12basic_stringIcNS_11char_traitsIcEENS_9allocatorIcEEE5__repES5_E5firstB7v160006Ev
FNDA:1,_ZNSt3__117__compressed_pairINS_12basic_stringIjNS_11char_traitsIjEENS_9allocatorIjEEE5__repES5_E5firstB7v160006Ev
FNDA:10,_ZNSt3__117__compressed_pairIP6EntityNS_9allocatorIS1_EEE5firstB7v160006Ev
FNDA:8,_ZNSt3__117__compressed_pairIP6EntityRNS_9allocatorIS1_EEE5firstB7v160006Ev
FNDA:7,_ZNSt3__117__compressed_pairIPN2sf6VertexENS_9allocatorIS2_EEE5firstB7v160006Ev
FNDA:1,_ZNSt3__117__compressed_pairIPNS_4pairIffEENS_9allocatorIS2_EEE5firstB7v160006Ev
FNDA:1,_ZNSt3__117__compressed_pairIPfNS_9allocatorIfEEE5firstB7v160006Ev
FNDA:2089,_ZNKSt3__117__compressed_pairINS_12basic_stringIcNS_11char_traitsIcEENS_9allocatorIcEEE5__repES5_E5firstB7v160006Ev
FNDA:2,_ZNKSt3__117__compressed_pairINS_12basic_stringIjNS_11char_traitsIjEENS_9allocatorIjEEE5__repES5_E5firstB7v160006Ev
FNDA:23,_ZNKSt3__117__compressed_pairIP6EntityNS_9allocatorIS1_EEE5firstB7v160006Ev
FNDA:3,_ZNKSt3__117__compressed_pairIP6EntityRNS_9allocatorIS1_EEE5firstB7v160006Ev
FNDA:17,_ZNKSt3__117__compressed_pairIPN2sf6VertexENS_9allocatorIS2_EEE5firstB7v160006Ev
FNDA:5,_ZNKSt3__117__compressed_pairIPNS_4pairIffEENS_9allocatorIS2_EEE5firstB7v160006Ev
FNDA:5,_ZNKSt3__117__compressed_pairIPfNS_9allocatorIfEEE5firstB7v160006Ev
FNDA:1,_ZNSt3__117__compressed_pairINS_12basic_stringIjNS_11char_traitsIjEENS_9allocatorIjEEE5__repES5_E6secondB7v160006Ev
FNDA:17,_ZNSt3__117__compressed_pairIP6EntityNS_9allocatorIS1_EEE6secondB7v160006Ev
FNDA:14,_ZNSt3__117__compressed_pairIP6EntityRNS_9allocatorIS1_EEE6secondB7v160006Ev
FNDA:75,_ZNSt3__117__compressed_pairIPN2sf6VertexENS_9allocatorIS2_EEE6secondB7v160006Ev
FNDA:6,_ZNSt3__117__compressed_pairIPNS_4pairIffEENS_9allocatorIS2_EEE6secondB7v160006Ev
FNDA:6,_ZNSt3__117__compressed_pairIPfNS_9allocatorIfEEE6secondB7v160006Ev
FNDA:4,_ZNKSt3__117__compressed_pairIP6EntityNS_9allocatorIS1_EEE6secondB7v160006Ev
FNDA:21,_ZNKSt3__117__compressed_pairIPN2sf6VertexENS_9allocatorIS2_EEE6secondB7v160006Ev
FNDA:1,_ZNKSt3__117__compressed_pairIPNS_4pairIffEENS_9allocatorIS2_EEE6secondB7v160006Ev
FNDA:1,_ZNKSt3__117__compressed_pairIPfNS_9allocatorIfEEE6secondB7v160006Ev
FNDA:237,_ZNSt3__122__compressed_pair_elemINS_12basic_stringIcNS_11char_traitsIcEENS_9allocatorIcEEE5__repELi0ELb0EEC2B7v160006ENS_18__default_init_tagE
FNDA:5,_ZNSt3__122__compressed_pair_elemIP6EntityLi0ELb0EEC2B7v160006IDnvEEOT_
FNDA:14,_ZNSt3__122__compressed_pair_elemIPN2sf6VertexELi0ELb0EEC2B7v160006IDnvEEOT_
FNDA:1,_ZNSt3__122__compressed_pair_elemIPNS_4pairIffEELi0ELb0EEC2B7v160006IDnvEEOT_
FNDA:1,_ZNSt3__122__compressed_pair_elemIPfLi0ELb0EEC2B7v160006IDnvEEOT_
FNDA:4,_ZNSt3__122__compressed_pair_elemIRNS_9allocatorI6EntityEELi1ELb0EEC2B7v160006IS4_vEEOT_
FNDA:480,_ZNSt3__122__compressed_pair_elemINS_12basic_stringIcNS_11char_traitsIcEENS_9allocatorIcEEE5__repELi0ELb0EE5__getB7v160006Ev
FNDA:1,_ZNSt3__122__compressed_pair_elemINS_12basic_stringIjNS_11char_traitsIjEENS_9allocatorIjEEE5__repELi0ELb0EE5__getB7v160006Ev
FNDA:18,_ZNSt3__122__compressed_pair_elemIP6EntityLi0ELb0EE5__getB7v160006Ev
FNDA:7,_ZNSt3__122__compressed_pair_elemIPN2sf6VertexELi0ELb0EE5__getB7v160006Ev
FNDA:1,_ZNSt3__122__compressed_pair_elemIPNS_4pairIffEELi0ELb0EE5__getB7v160006Ev
FNDA:1,_ZNSt3__122__compressed_pair_elemIPfLi0ELb0EE5__getB7v160006Ev
FNDA:14,_ZNSt3__122__compressed_pair_elemIRNS_9allocatorI6EntityEELi1ELb0EE5__getB7v160006Ev
FNDA:2089,_ZNKSt3__122__compressed_pair_elemINS_12basic_stringIcNS_11char_traitsIcEENS_9allocatorIcEEE5__repELi0ELb0EE5__getB7v160006Ev
FNDA:2,_ZNKSt3__122__compressed_pair_elemINS_12basic_stringIjNS_11char_traitsIjEENS_9allocatorIjEEE5__repELi0ELb0EE5__getB7v160006Ev
FNDA:26,_ZNKSt3__122__compressed_pair_elemIP6EntityLi0ELb0EE5__getB7v160006Ev
FNDA:17,_ZNKSt3__122__compressed_pair_elemIPN2sf6VertexELi0ELb0EE5__getB7v160006Ev
FNDA:5,_ZNKSt3__122__compressed_pair_elemIPNS_4pairIffEELi0ELb0EE5__getB7v160006Ev
FNDA:5,_ZNKSt3__122__compressed_pair_elemIPfLi0ELb0EE5__getB7v160006Ev
FNDA:1,_ZNSt3__122__compressed_pair_elemINS_9allocatorI6EntityEELi1ELb1EEC2B7v160006ENS_18__default_init_tagE
FNDA:1,_ZNSt3__122__compressed_pair_elemINS_9allocatorINS_4pairIffEEEELi1ELb1EEC2B7v160006ENS_18__default_init_tagE
FNDA:237,_ZNSt3__122__compressed_pair_elemINS_9allocatorIcEELi1ELb1EEC2B7v160006ENS_18__default_init_tagE
FNDA:1,_ZNSt3__122__compressed_pair_elemINS_9allocatorIfEELi1ELb1EEC2B7v160006ENS_18__default_init_tagE
FNDA:14,_ZNSt3__122__compressed_pair_elemINS_9allocatorIN2sf6VertexEEELi1ELb1EEC2B7v160006IS4_vEEOT_
FNDA:17,_ZNSt3__122__compressed_pair_elemINS_9allocatorI6EntityEELi1ELb1EE5__getB7v160006Ev
FNDA:75,_ZNSt3__122__compressed_pair_elemINS_9allocatorIN2sf6VertexEEELi1ELb1EE5__getB7v160006Ev
FNDA:6,_ZNSt3__122__compressed_pair_elemINS_9allocatorINS_4pairIffEEEELi1ELb1EE5__getB7v160006Ev
FNDA:6,_ZNSt3__122__compressed_pair_elemINS_9allocatorIfEELi1ELb1EE5__getB7v160006Ev
FNDA:1,_ZNSt3__122__compressed_pair_elemINS_9allocatorIjEELi1ELb1EE5__getB7v160006Ev
FNDA:4,_ZNKSt3__122__compressed_pair_elemINS_9allocatorI6EntityEELi1ELb1EE5__getB7v160006Ev
FNDA:21,_ZNKSt3__122__compressed_pair_elemINS_9allocatorIN2sf6VertexEEELi1ELb1EE5__getB7v160006Ev
FNDA:1,_ZNKSt3__122__compressed_pair_elemINS_9allocatorINS_4pairIffEEEELi1ELb1EE5__getB7v160006Ev
FNDA:1,_ZNKSt3__122__compressed_pair_elemINS_9allocatorIfEELi1ELb1EE5__getB7v160006Ev
FNF:69
FNH:69
DA:46,237
DA:51,25
DA:60,522
DA:61,2144
DA:75,240
DA:80,14
DA:89,105
DA:90,27
DA:119,516
DA:131,508
DA:132,508
DA:136,2144
DA:137,2144
DA:141,119
DA:142,119
DA:146,27
DA:147,27
LF:17
LH:17
end_of_record
TN:
SF:/Library/Developer/CommandLineTools/SDKs/MacOSX14.2.sdk/usr/include/c++/v1/__memory/pointer_traits.h
FN:153,154,_ZNSt3__114pointer_traitsIPKcE10pointer_toB7v160006ERS1_
FN:153,154,_ZNSt3__114pointer_traitsIPcE10pointer_toB7v160006ERc
FN:172,174,_ZNSt3__112__to_addressB7v160006I6EntityEEPT_S3_
FN:172,174,_ZNSt3__112__to_addressB7v160006IKcEEPT_S3_
FN:172,174,_ZNSt3__112__to_addressB7v160006IKfEEPT_S3_
FN:172,174,_ZNSt3__112__to_addressB7v160006IN2sf6VertexEEEPT_S4_
FN:172,174,_ZNSt3__112__to_addressB7v160006INS_4pairIffEEEEPT_S4_
FN:172,174,_ZNSt3__112__to_addressB7v160006IcEEPT_S2_
FN:172,174,_ZNSt3__112__to_addressB7v160006IfEEPT_S2_
FN:204,205,_ZNSt3__112__to_addressB7v160006INS_16reverse_iteratorINS1_IP6EntityEEEEvEENS_5decayIDTclsr19__to_address_helperIT_EE6__callclsr3stdE7declvalIRKS7_EEEEE4typeES9_
FN:204,205,_ZNSt3__112__to_addressB7v160006INS_16reverse_iteratorIP6EntityEEvEENS_5decayIDTclsr19__to_address_helperIT_EE6__callclsr3stdE7declvalIRKS6_EEEEE4typeES8_
FN:204,205,_ZNSt3__112__to_addressB7v160006INS_16reverse_iteratorIPN2sf6VertexEEEvEENS_5decayIDTclsr19__to_address_helperIT_EE6__callclsr3stdE7declvalIRKS7_EEEEE4typeES9_
FN:204,205,_ZNSt3__112__to_addressB7v160006INS_16reverse_iteratorIPNS_4pairIffEEEEvEENS_5decayIDTclsr19__to_address_helperIT_EE6__callclsr3stdE7declvalIRKS7_EEEEE4typeES9_
FN:212,213,_ZNSt3__119__to_address_helperINS_16reverse_iteratorINS1_IP6EntityEEEEvE6__callB7v160006ERKS5_
FN:212,213,_ZNSt3__119__to_address_helperINS_16reverse_iteratorIP6EntityEEvE6__callB7v160006ERKS4_
FN:212,213,_ZNSt3__119__to_address_helperINS_16reverse_iteratorIPN2sf6VertexEEEvE6__callB7v160006ERKS5_
FN:212,213,_ZNSt3__119__to_address_helperINS_16reverse_iteratorIPNS_4pairIffEEEEvE6__callB7v160006ERKS5_
FNDA:324,_ZNSt3__114pointer_traitsIPKcE10pointer_toB7v160006ERS1_
FNDA:40,_ZNSt3__114pointer_traitsIPcE10pointer_toB7v160006ERc
FNDA:62,_ZNSt3__112__to_addressB7v160006I6EntityEEPT_S3_
FNDA:473,_ZNSt3__112__to_addressB7v160006IKcEEPT_S3_
FNDA:3,_ZNSt3__112__to_addressB7v160006IKfEEPT_S3_
FNDA:316,_ZNSt3__112__to_addressB7v160006IN2sf6VertexEEEPT_S4_
FNDA:14,_ZNSt3__112__to_addressB7v160006INS_4pairIffEEEEPT_S4_
FNDA:0,_ZNSt3__112__to_addressB7v160006IcEEPT_S2_
FNDA:13,_ZNSt3__112__to_addressB7v160006IfEEPT_S2_
FNDA:0,_ZNSt3__112__to_addressB7v160006INS_16reverse_iteratorINS1_IP6EntityEEEEvEENS_5decayIDTclsr19__to_address_helperIT_EE6__callclsr3stdE7declvalIRKS7_EEEEE4typeES9_
FNDA:7,_ZNSt3__112__to_addressB7v160006INS_16reverse_iteratorIP6EntityEEvEENS_5decayIDTclsr19__to_address_helperIT_EE6__callclsr3stdE7declvalIRKS6_EEEEE4typeES8_
FNDA:0,_ZNSt3__112__to_addressB7v160006INS_16reverse_iteratorIPN2sf6VertexEEEvEENS_5decayIDTclsr19__to_address_helperIT_EE6__callclsr3stdE7declvalIRKS7_EEEEE4typeES9_
FNDA:0,_ZNSt3__112__to_addressB7v160006INS_16reverse_iteratorIPNS_4pairIffEEEEvEENS_5decayIDTclsr19__to_address_helperIT_EE6__callclsr3stdE7declvalIRKS7_EEEEE4typeES9_
FNDA:0,_ZNSt3__119__to_address_helperINS_16reverse_iteratorINS1_IP6EntityEEEEvE6__callB7v160006ERKS5_
FNDA:7,_ZNSt3__119__to_address_helperINS_16reverse_iteratorIP6EntityEEvE6__callB7v160006ERKS4_
FNDA:0,_ZNSt3__119__to_address_helperINS_16reverse_iteratorIPN2sf6VertexEEEvE6__callB7v160006ERKS5_
FNDA:0,_ZNSt3__119__to_address_helperINS_16reverse_iteratorIPNS_4pairIffEEEEvE6__callB7v160006ERKS5_
FNF:17
FNH:10
DA:153,364
DA:154,364
DA:172,881
DA:174,881
DA:204,7
DA:205,7
DA:212,7
DA:213,7
LF:8
LH:8
end_of_record
TN:
SF:/Library/Developer/CommandLineTools/SDKs/MacOSX14.2.sdk/usr/include/c++/v1/__memory/uninitialized_algorithms.h
FN:520,523,_ZNSt3__119__allocator_destroyB7v160006INS_9allocatorI6EntityEENS_16reverse_iteratorINS4_IPS2_EEEES7_EEvRT_T0_T1_
FN:520,523,_ZNSt3__119__allocator_destroyB7v160006INS_9allocatorIN2sf6VertexEEENS_16reverse_iteratorIPS3_EES7_EEvRT_T0_T1_
FN:520,523,_ZNSt3__119__allocator_destroyB7v160006INS_9allocatorINS_4pairIffEEEENS_16reverse_iteratorIPS3_EES7_EEvRT_T0_T1_
FN:529,530,_ZNSt3__129_AllocatorDestroyRangeReverseINS_9allocatorI6EntityEENS_16reverse_iteratorIPS2_EEEC1B7v160006ERS3_RS6_S9_
FN:529,530,_ZNSt3__129_AllocatorDestroyRangeReverseINS_9allocatorI6EntityEENS_16reverse_iteratorIPS2_EEEC2B7v160006ERS3_RS6_S9_
FN:529,530,_ZNSt3__129_AllocatorDestroyRangeReverseINS_9allocatorIN2sf6VertexEEEPS3_EC1B7v160006ERS4_RS5_S8_
FN:529,530,_ZNSt3__129_AllocatorDestroyRangeReverseINS_9allocatorIN2sf6VertexEEEPS3_EC2B7v160006ERS4_RS5_S8_
FN:529,530,_ZNSt3__129_AllocatorDestroyRangeReverseINS_9allocatorINS_4pairIffEEEEPS3_EC1B7v160006ERS4_RS5_S8_
FN:529,530,_ZNSt3__129_AllocatorDestroyRangeReverseINS_9allocatorINS_4pairIffEEEEPS3_EC2B7v160006ERS4_RS5_S8_
FN:532,534,_ZNKSt3__129_AllocatorDestroyRangeReverseINS_9allocatorI6EntityEENS_16reverse_iteratorIPS2_EEEclB7v160006Ev
FN:532,534,_ZNKSt3__129_AllocatorDestroyRangeReverseINS_9allocatorIN2sf6VertexEEEPS3_EclB7v160006Ev
FN:532,534,_ZNKSt3__129_AllocatorDestroyRangeReverseINS_9allocatorINS_4pairIffEEEEPS3_EclB7v160006Ev
FN:548,559,_ZNSt3__130__uninitialized_allocator_copyB7v160006INS_9allocatorIN2sf6VertexEEEPS3_S5_S5_EET2_RT_T0_T1_S6_
FN:548,559,_ZNSt3__130__uninitialized_allocator_copyB7v160006INS_9allocatorINS_4pairIffEEEEPKS3_S6_PS3_EET2_RT_T0_T1_S8_
FN:575,585,_ZNSt3__130__uninitialized_allocator_copyB7v160006INS_9allocatorIfEEffLPv0EEEPT0_RT_PKS4_S9_S5_
FN:595,613,_ZNSt3__142__uninitialized_allocator_move_if_noexceptB7v160006INS_9allocatorI6EntityEENS_16reverse_iteratorIPS2_EES6_S6_EET2_RT_T0_T1_S7_
FNDA:0,_ZNSt3__119__allocator_destroyB7v160006INS_9allocatorI6EntityEENS_16reverse_iteratorINS4_IPS2_EEEES7_EEvRT_T0_T1_
FNDA:0,_ZNSt3__119__allocator_destroyB7v160006INS_9allocatorIN2sf6VertexEEENS_16reverse_iteratorIPS3_EES7_EEvRT_T0_T1_
FNDA:0,_ZNSt3__119__allocator_destroyB7v160006INS_9allocatorINS_4pairIffEEEENS_16reverse_iteratorIPS3_EES7_EEvRT_T0_T1_
FNDA:4,_ZNSt3__129_AllocatorDestroyRangeReverseINS_9allocatorI6EntityEENS_16reverse_iteratorIPS2_EEEC1B7v160006ERS3_RS6_S9_
FNDA:4,_ZNSt3__129_AllocatorDestroyRangeReverseINS_9allocatorI6EntityEENS_16reverse_iteratorIPS2_EEEC2B7v160006ERS3_RS6_S9_
FNDA:7,_ZNSt3__129_AllocatorDestroyRangeReverseINS_9allocatorIN2sf6VertexEEEPS3_EC1B7v160006ERS4_RS5_S8_
FNDA:7,_ZNSt3__129_AllocatorDestroyRangeReverseINS_9allocatorIN2sf6VertexEEEPS3_EC2B7v160006ERS4_RS5_S8_
FNDA:1,_ZNSt3__129_AllocatorDestroyRangeReverseINS_9allocatorINS_4pairIffEEEEPS3_EC1B7v160006ERS4_RS5_S8_
FNDA:1,_ZNSt3__129_AllocatorDestroyRangeReverseINS_9allocatorINS_4pairIffEEEEPS3_EC2B7v160006ERS4_RS5_S8_
FNDA:0,_ZNKSt3__129_AllocatorDestroyRangeReverseINS_9allocatorI6EntityEENS_16reverse_iteratorIPS2_EEEclB7v160006Ev
FNDA:0,_ZNKSt3__129_AllocatorDestroyRangeReverseINS_9allocatorIN2sf6VertexEEEPS3_EclB7v160006Ev
FNDA:0,_ZNKSt3__129_AllocatorDestroyRangeReverseINS_9allocatorINS_4pairIffEEEEPS3_EclB7v160006Ev
FNDA:7,_ZNSt3__130__uninitialized_allocator_copyB7v160006INS_9allocatorIN2sf6VertexEEEPS3_S5_S5_EET2_RT_T0_T1_S6_
FNDA:1,_ZNSt3__130__uninitialized_allocator_copyB7v160006INS_9allocatorINS_4pairIffEEEEPKS3_S6_PS3_EET2_RT_T0_T1_S8_
FNDA:1,_ZNSt3__130__uninitialized_allocator_copyB7v160006INS_9allocatorIfEEffLPv0EEEPT0_RT_PKS4_S9_S5_
FNDA:4,_ZNSt3__142__uninitialized_allocator_move_if_noexceptB7v160006INS_9allocatorI6EntityEENS_16reverse_iteratorIPS2_EES6_S6_EET2_RT_T0_T1_S7_
FNF:16
FNH:10
DA:520,0
DA:521,0
DA:522,0
DA:523,0
DA:529,24
DA:530,24
DA:532,0
DA:533,0
DA:534,0
DA:548,8
DA:549,8
DA:551,8
DA:552,235
DA:553,227
DA:554,227
DA:555,227
DA:557,8
DA:558,8
DA:559,8
DA:575,1
DA:585,1
DA:595,4
DA:599,4
DA:601,4
DA:602,11
DA:604,7
DA:608,7
DA:609,7
DA:611,4
DA:612,4
DA:613,4
LF:31
LH:24
end_of_record
TN:
SF:/Library/Developer/CommandLineTools/SDKs/MacOSX14.2.sdk/usr/include/c++/v1/__split_buffer
FN:101,_ZNSt3__114__split_bufferI6EntityRNS_9allocatorIS1_EEE5clearB7v160006Ev
FN:105,_ZNKSt3__114__split_bufferI6EntityRNS_9allocatorIS1_EEE8capacityB7v160006Ev
FN:143,_ZNSt3__114__split_bufferI6EntityRNS_9allocatorIS1_EEE17__destruct_at_endB7v160006EPS1_
FN:300,_ZNSt3__114__split_bufferI6EntityRNS_9allocatorIS1_EEE17__destruct_at_endB7v160006EPS1_NS_17integral_constantIbLb0EEE
FN:317,_ZNSt3__114__split_bufferI6EntityRNS_9allocatorIS1_EEEC1EmmS4_
FN:317,_ZNSt3__114__split_bufferI6EntityRNS_9allocatorIS1_EEEC2EmmS4_
FN:358,_ZNSt3__114__split_bufferI6EntityRNS_9allocatorIS1_EEED1Ev
FN:358,_ZNSt3__114__split_bufferI6EntityRNS_9allocatorIS1_EEED2Ev
FN:72,_ZNSt3__114__split_bufferI6EntityRNS_9allocatorIS1_EEE7__allocB7v160006Ev
FN:74,_ZNSt3__114__split_bufferI6EntityRNS_9allocatorIS1_EEE9__end_capB7v160006Ev
FN:75,_ZNKSt3__114__split_bufferI6EntityRNS_9allocatorIS1_EEE9__end_capB7v160006Ev
FNDA:4,_ZNSt3__114__split_bufferI6EntityRNS_9allocatorIS1_EEE5clearB7v160006Ev
FNDA:3,_ZNKSt3__114__split_bufferI6EntityRNS_9allocatorIS1_EEE8capacityB7v160006Ev
FNDA:4,_ZNSt3__114__split_bufferI6EntityRNS_9allocatorIS1_EEE17__destruct_at_endB7v160006EPS1_
FNDA:4,_ZNSt3__114__split_bufferI6EntityRNS_9allocatorIS1_EEE17__destruct_at_endB7v160006EPS1_NS_17integral_constantIbLb0EEE
FNDA:4,_ZNSt3__114__split_bufferI6EntityRNS_9allocatorIS1_EEEC1EmmS4_
FNDA:4,_ZNSt3__114__split_bufferI6EntityRNS_9allocatorIS1_EEEC2EmmS4_
FNDA:4,_ZNSt3__114__split_bufferI6EntityRNS_9allocatorIS1_EEED1Ev
FNDA:4,_ZNSt3__114__split_bufferI6EntityRNS_9allocatorIS1_EEED2Ev
FNDA:14,_ZNSt3__114__split_bufferI6EntityRNS_9allocatorIS1_EEE7__allocB7v160006Ev
FNDA:8,_ZNSt3__114__split_bufferI6EntityRNS_9allocatorIS1_EEE9__end_capB7v160006Ev
FNDA:3,_ZNKSt3__114__split_bufferI6EntityRNS_9allocatorIS1_EEE9__end_capB7v160006Ev
FNF:11
FNH:11
DA:72,14
DA:74,8
DA:75,3
DA:101,4
DA:102,4
DA:105,3
DA:143,4
DA:144,4
DA:300,4
DA:302,11
DA:303,7
DA:304,4
DA:317,8
DA:318,4
DA:319,4
DA:320,4
DA:321,0
DA:322,0
DA:323,4
DA:324,4
DA:325,4
DA:327,4
DA:328,4
DA:329,8
DA:358,8
DA:359,4
DA:360,4
DA:361,4
DA:362,3
DA:363,8
LF:30
LH:28
end_of_record
TN:
SF:/Library/Developer/CommandLineTools/SDKs/MacOSX14.2.sdk/usr/include/c++/v1/__string/char_traits.h
FN:219,220,_ZNSt3__111char_traitsIcE6lengthEPKc
FN:255,256,_ZNSt3__111char_traitsIcE11eq_int_typeEii
FN:257,258,_ZNSt3__111char_traitsIcE3eofEv
FNDA:128,_ZNSt3__111char_traitsIcE6lengthEPKc
FNDA:167,_ZNSt3__111char_traitsIcE11eq_int_typeEii
FNDA:176,_ZNSt3__111char_traitsIcE3eofEv
FNF:3
FNH:3
DA:219,128
DA:220,128
DA:255,167
DA:256,167
DA:257,176
DA:258,176
LF:6
LH:6
end_of_record
TN:
SF:/Library/Developer/CommandLineTools/SDKs/MacOSX14.2.sdk/usr/include/c++/v1/__utility/exception_guard.h
FN:133,134,_ZNSt3__122__make_exception_guardB7v160006INS_29_AllocatorDestroyRangeReverseINS_9allocatorI6EntityEENS_16reverse_iteratorIPS3_EEEEEENS_28__exception_guard_exceptionsIT_EESA_
FN:133,134,_ZNSt3__122__make_exception_guardB7v160006INS_29_AllocatorDestroyRangeReverseINS_9allocatorIN2sf6VertexEEEPS4_EEEENS_28__exception_guard_exceptionsIT_EES9_
FN:133,134,_ZNSt3__122__make_exception_guardB7v160006INS_29_AllocatorDestroyRangeReverseINS_9allocatorINS_4pairIffEEEEPS4_EEEENS_28__exception_guard_exceptionsIT_EES9_
FN:133,134,_ZNSt3__122__make_exception_guardB7v160006INS_6vectorIN2sf6VertexENS_9allocatorIS3_EEE16__destroy_vectorEEENS_28__exception_guard_exceptionsIT_EES9_
FN:133,134,_ZNSt3__122__make_exception_guardB7v160006INS_6vectorINS_4pairIffEENS_9allocatorIS3_EEE16__destroy_vectorEEENS_28__exception_guard_exceptionsIT_EES9_
FN:133,134,_ZNSt3__122__make_exception_guardB7v160006INS_6vectorIfNS_9allocatorIfEEE16__destroy_vectorEEENS_28__exception_guard_exceptionsIT_EES7_
FN:66,67,_ZNSt3__128__exception_guard_exceptionsINS_29_AllocatorDestroyRangeReverseINS_9allocatorI6EntityEENS_16reverse_iteratorIPS3_EEEEEC1B7v160006ES8_
FN:66,67,_ZNSt3__128__exception_guard_exceptionsINS_29_AllocatorDestroyRangeReverseINS_9allocatorI6EntityEENS_16reverse_iteratorIPS3_EEEEEC2B7v160006ES8_
FN:66,67,_ZNSt3__128__exception_guard_exceptionsINS_29_AllocatorDestroyRangeReverseINS_9allocatorIN2sf6VertexEEEPS4_EEEC1B7v160006ES7_
FN:66,67,_ZNSt3__128__exception_guard_exceptionsINS_29_AllocatorDestroyRangeReverseINS_9allocatorIN2sf6VertexEEEPS4_EEEC2B7v160006ES7_
FN:66,67,_ZNSt3__128__exception_guard_exceptionsINS_29_AllocatorDestroyRangeReverseINS_9allocatorINS_4pairIffEEEEPS4_EEEC1B7v160006ES7_
FN:66,67,_ZNSt3__128__exception_guard_exceptionsINS_29_AllocatorDestroyRangeReverseINS_9allocatorINS_4pairIffEEEEPS4_EEEC2B7v160006ES7_
FN:66,67,_ZNSt3__128__exception_guard_exceptionsINS_6vectorIN2sf6VertexENS_9allocatorIS3_EEE16__destroy_vectorEEC1B7v160006ES7_
FN:66,67,_ZNSt3__128__exception_guard_exceptionsINS_6vectorIN2sf6VertexENS_9allocatorIS3_EEE16__destroy_vectorEEC2B7v160006ES7_
FN:66,67,_ZNSt3__128__exception_guard_exceptionsINS_6vectorINS_4pairIffEENS_9allocatorIS3_EEE16__destroy_vectorEEC1B7v160006ES7_
FN:66,67,_ZNSt3__128__exception_guard_exceptionsINS_6vectorINS_4pairIffEENS_9allocatorIS3_EEE16__destroy_vectorEEC2B7v160006ES7_
FN:66,67,_ZNSt3__128__exception_guard_exceptionsINS_6vectorIfNS_9allocatorIfEEE16__destroy_vectorEEC1B7v160006ES5_
FN:66,67,_ZNSt3__128__exception_guard_exceptionsINS_6vectorIfNS_9allocatorIfEEE16__destroy_vectorEEC2B7v160006ES5_
FN:80,80,_ZNSt3__128__exception_guard_exceptionsINS_29_AllocatorDestroyRangeReverseINS_9allocatorI6EntityEENS_16reverse_iteratorIPS3_EEEEE10__completeB7v160006Ev
FN:80,80,_ZNSt3__128__exception_guard_exceptionsINS_29_AllocatorDestroyRangeReverseINS_9allocatorIN2sf6VertexEEEPS4_EEE10__completeB7v160006Ev
FN:80,80,_ZNSt3__128__exception_guard_exceptionsINS_29_AllocatorDestroyRangeReverseINS_9allocatorINS_4pairIffEEEEPS4_EEE10__completeB7v160006Ev
FN:80,80,_ZNSt3__128__exception_guard_exceptionsINS_6vectorIN2sf6VertexENS_9allocatorIS3_EEE16__destroy_vectorEE10__completeB7v160006Ev
FN:80,80,_ZNSt3__128__exception_guard_exceptionsINS_6vectorINS_4pairIffEENS_9allocatorIS3_EEE16__destroy_vectorEE10__completeB7v160006Ev
FN:80,80,_ZNSt3__128__exception_guard_exceptionsINS_6vectorIfNS_9allocatorIfEEE16__destroy_vectorEE10__completeB7v160006Ev
FN:82,85,_ZNSt3__128__exception_guard_exceptionsINS_29_AllocatorDestroyRangeReverseINS_9allocatorI6EntityEENS_16reverse_iteratorIPS3_EEEEED1B7v160006Ev
FN:82,85,_ZNSt3__128__exception_guard_exceptionsINS_29_AllocatorDestroyRangeReverseINS_9allocatorI6EntityEENS_16reverse_iteratorIPS3_EEEEED2B7v160006Ev
FN:82,85,_ZNSt3__128__exception_guard_exceptionsINS_29_AllocatorDestroyRangeReverseINS_9allocatorIN2sf6VertexEEEPS4_EEED1B7v160006Ev
FN:82,85,_ZNSt3__128__exception_guard_exceptionsINS_29_AllocatorDestroyRangeReverseINS_9allocatorIN2sf6VertexEEEPS4_EEED2B7v160006Ev
FN:82,85,_ZNSt3__128__exception_guard_exceptionsINS_29_AllocatorDestroyRangeReverseINS_9allocatorINS_4pairIffEEEEPS4_EEED1B7v160006Ev
FN:82,85,_ZNSt3__128__exception_guard_exceptionsINS_29_AllocatorDestroyRangeReverseINS_9allocatorINS_4pairIffEEEEPS4_EEED2B7v160006Ev
FN:82,85,_ZNSt3__128__exception_guard_exceptionsINS_6vectorIN2sf6VertexENS_9allocatorIS3_EEE16__destroy_vectorEED1B7v160006Ev
FN:82,85,_ZNSt3__128__exception_guard_exceptionsINS_6vectorIN2sf6VertexENS_9allocatorIS3_EEE16__destroy_vectorEED2B7v160006Ev
FN:82,85,_ZNSt3__128__exception_guard_exceptionsINS_6vectorINS_4pairIffEENS_9allocatorIS3_EEE16__destroy_vectorEED1B7v160006Ev
FN:82,85,_ZNSt3__128__exception_guard_exceptionsINS_6vectorINS_4pairIffEENS_9allocatorIS3_EEE16__destroy_vectorEED2B7v160006Ev
FN:82,85,_ZNSt3__128__exception_guard_exceptionsINS_6vectorIfNS_9allocatorIfEEE16__destroy_vectorEED1B7v160006Ev
FN:82,85,_ZNSt3__128__exception_guard_exceptionsINS_6vectorIfNS_9allocatorIfEEE16__destroy_vectorEED2B7v160006Ev
FNDA:4,_ZNSt3__122__make_exception_guardB7v160006INS_29_AllocatorDestroyRangeReverseINS_9allocatorI6EntityEENS_16reverse_iteratorIPS3_EEEEEENS_28__exception_guard_exceptionsIT_EESA_
FNDA:7,_ZNSt3__122__make_exception_guardB7v160006INS_29_AllocatorDestroyRangeReverseINS_9allocatorIN2sf6VertexEEEPS4_EEEENS_28__exception_guard_exceptionsIT_EES9_
FNDA:1,_ZNSt3__122__make_exception_guardB7v160006INS_29_AllocatorDestroyRangeReverseINS_9allocatorINS_4pairIffEEEEPS4_EEEENS_28__exception_guard_exceptionsIT_EES9_
FNDA:14,_ZNSt3__122__make_exception_guardB7v160006INS_6vectorIN2sf6VertexENS_9allocatorIS3_EEE16__destroy_vectorEEENS_28__exception_guard_exceptionsIT_EES9_
FNDA:1,_ZNSt3__122__make_exception_guardB7v160006INS_6vectorINS_4pairIffEENS_9allocatorIS3_EEE16__destroy_vectorEEENS_28__exception_guard_exceptionsIT_EES9_
FNDA:1,_ZNSt3__122__make_exception_guardB7v160006INS_6vectorIfNS_9allocatorIfEEE16__destroy_vectorEEENS_28__exception_guard_exceptionsIT_EES7_
FNDA:4,_ZNSt3__128__exception_guard_exceptionsINS_29_AllocatorDestroyRangeReverseINS_9allocatorI6EntityEENS_16reverse_iteratorIPS3_EEEEEC1B7v160006ES8_
FNDA:4,_ZNSt3__128__exception_guard_exceptionsINS_29_AllocatorDestroyRangeReverseINS_9allocatorI6EntityEENS_16reverse_iteratorIPS3_EEEEEC2B7v160006ES8_
FNDA:7,_ZNSt3__128__exception_guard_exceptionsINS_29_AllocatorDestroyRangeReverseINS_9allocatorIN2sf6VertexEEEPS4_EEEC1B7v160006ES7_
FNDA:7,_ZNSt3__128__exception_guard_exceptionsINS_29_AllocatorDestroyRangeReverseINS_9allocatorIN2sf6VertexEEEPS4_EEEC2B7v160006ES7_
FNDA:1,_ZNSt3__128__exception_guard_exceptionsINS_29_AllocatorDestroyRangeReverseINS_9allocatorINS_4pairIffEEEEPS4_EEEC1B7v160006ES7_
FNDA:1,_ZNSt3__128__exception_guard_exceptionsINS_29_AllocatorDestroyRangeReverseINS_9allocatorINS_4pairIffEEEEPS4_EEEC2B7v160006ES7_
FNDA:14,_ZNSt3__128__exception_guard_exceptionsINS_6vectorIN2sf6VertexENS_9allocatorIS3_EEE16__destroy_vectorEEC1B7v160006ES7_
FNDA:14,_ZNSt3__128__exception_guard_exceptionsINS_6vectorIN2sf6VertexENS_9allocatorIS3_EEE16__destroy_vectorEEC2B7v160006ES7_
FNDA:1,_ZNSt3__128__exception_guard_exceptionsINS_6vectorINS_4pairIffEENS_9allocatorIS3_EEE16__destroy_vectorEEC1B7v160006ES7_
FNDA:1,_ZNSt3__128__exception_guard_exceptionsINS_6vectorINS_4pairIffEENS_9allocatorIS3_EEE16__destroy_vectorEEC2B7v160006ES7_
FNDA:1,_ZNSt3__128__exception_guard_exceptionsINS_6vectorIfNS_9allocatorIfEEE16__destroy_vectorEEC1B7v160006ES5_
FNDA:1,_ZNSt3__128__exception_guard_exceptionsINS_6vectorIfNS_9allocatorIfEEE16__destroy_vectorEEC2B7v160006ES5_
FNDA:4,_ZNSt3__128__exception_guard_exceptionsINS_29_AllocatorDestroyRangeReverseINS_9allocatorI6EntityEENS_16reverse_iteratorIPS3_EEEEE10__completeB7v160006Ev
FNDA:7,_ZNSt3__128__exception_guard_exceptionsINS_29_AllocatorDestroyRangeReverseINS_9allocatorIN2sf6VertexEEEPS4_EEE10__completeB7v160006Ev
FNDA:1,_ZNSt3__128__exception_guard_exceptionsINS_29_AllocatorDestroyRangeReverseINS_9allocatorINS_4pairIffEEEEPS4_EEE10__completeB7v160006Ev
FNDA:14,_ZNSt3__128__exception_guard_exceptionsINS_6vectorIN2sf6VertexENS_9allocatorIS3_EEE16__destroy_vectorEE10__completeB7v160006Ev
FNDA:1,_ZNSt3__128__exception_guard_exceptionsINS_6vectorINS_4pairIffEENS_9allocatorIS3_EEE16__destroy_vectorEE10__completeB7v160006Ev
FNDA:1,_ZNSt3__128__exception_guard_exceptionsINS_6vectorIfNS_9allocatorIfEEE16__destroy_vectorEE10__completeB7v160006Ev
FNDA:4,_ZNSt3__128__exception_guard_exceptionsINS_29_AllocatorDestroyRangeReverseINS_9allocatorI6EntityEENS_16reverse_iteratorIPS3_EEEEED1B7v160006Ev
FNDA:4,_ZNSt3__128__exception_guard_exceptionsINS_29_AllocatorDestroyRangeReverseINS_9allocatorI6EntityEENS_16reverse_iteratorIPS3_EEEEED2B7v160006Ev
FNDA:7,_ZNSt3__128__exception_guard_exceptionsINS_29_AllocatorDestroyRangeReverseINS_9allocatorIN2sf6VertexEEEPS4_EEED1B7v160006Ev
FNDA:7,_ZNSt3__128__exception_guard_exceptionsINS_29_AllocatorDestroyRangeReverseINS_9allocatorIN2sf6VertexEEEPS4_EEED2B7v160006Ev
FNDA:1,_ZNSt3__128__exception_guard_exceptionsINS_29_AllocatorDestroyRangeReverseINS_9allocatorINS_4pairIffEEEEPS4_EEED1B7v160006Ev
FNDA:1,_ZNSt3__128__exception_guard_exceptionsINS_29_AllocatorDestroyRangeReverseINS_9allocatorINS_4pairIffEEEEPS4_EEED2B7v160006Ev
FNDA:14,_ZNSt3__128__exception_guard_exceptionsINS_6vectorIN2sf6VertexENS_9allocatorIS3_EEE16__destroy_vectorEED1B7v160006Ev
FNDA:14,_ZNSt3__128__exception_guard_exceptionsINS_6vectorIN2sf6VertexENS_9allocatorIS3_EEE16__destroy_vectorEED2B7v160006Ev
FNDA:1,_ZNSt3__128__exception_guard_exceptionsINS_6vectorINS_4pairIffEENS_9allocatorIS3_EEE16__destroy_vectorEED1B7v160006Ev
FNDA:1,_ZNSt3__128__exception_guard_exceptionsINS_6vectorINS_4pairIffEENS_9allocatorIS3_EEE16__destroy_vectorEED2B7v160006Ev
FNDA:1,_ZNSt3__128__exception_guard_exceptionsINS_6vectorIfNS_9allocatorIfEEE16__destroy_vectorEED1B7v160006Ev
FNDA:1,_ZNSt3__128__exception_guard_exceptionsINS_6vectorIfNS_9allocatorIfEEE16__destroy_vectorEED2B7v160006Ev
FNF:36
FNH:36
DA:66,56
DA:67,56
DA:80,28
DA:82,56
DA:83,28
DA:84,0
DA:85,56
DA:133,28
DA:134,28
LF:9
LH:8
end_of_record
TN:
SF:/Library/Developer/CommandLineTools/SDKs/MacOSX14.2.sdk/usr/include/c++/v1/__utility/pair.h
FN:219,222,_ZNSt3__14pairIPKfPfEC1B7v160006IRS2_S3_LPv0EEEOT_OT0_
FN:219,222,_ZNSt3__14pairIPKfPfEC1B7v160006IS2_S3_LPv0EEEOT_OT0_
FN:219,222,_ZNSt3__14pairIPKfPfEC2B7v160006IRS2_S3_LPv0EEEOT_OT0_
FN:219,222,_ZNSt3__14pairIPKfPfEC2B7v160006IS2_S3_LPv0EEEOT_OT0_
FN:219,222,_ZNSt3__14pairIPKfS2_EC1B7v160006IS2_S2_LPv0EEEOT_OT0_
FN:219,222,_ZNSt3__14pairIPKfS2_EC2B7v160006IS2_S2_LPv0EEEOT_OT0_
FN:219,222,_ZNSt3__14pairIffEC1B7v160006IffLPv0EEEOT_OT0_
FN:219,222,_ZNSt3__14pairIffEC2B7v160006IffLPv0EEEOT_OT0_
FN:219,222,_ZNSt3__14pairIllEC2B7v160006IiiLPv0EEEOT_OT0_
FN:542,545,_ZNSt3__19make_pairB7v160006IPKfPfEENS_4pairINS_18__unwrap_ref_decayIT_E4typeENS5_IT0_E4typeEEEOS6_OS9_
FN:542,545,_ZNSt3__19make_pairB7v160006IPKfS2_EENS_4pairINS_18__unwrap_ref_decayIT_E4typeENS4_IT0_E4typeEEEOS5_OS8_
FN:542,545,_ZNSt3__19make_pairB7v160006IRPKfPfEENS_4pairINS_18__unwrap_ref_decayIT_E4typeENS6_IT0_E4typeEEEOS7_OSA_
FNDA:1,_ZNSt3__14pairIPKfPfEC1B7v160006IRS2_S3_LPv0EEEOT_OT0_
FNDA:1,_ZNSt3__14pairIPKfPfEC1B7v160006IS2_S3_LPv0EEEOT_OT0_
FNDA:1,_ZNSt3__14pairIPKfPfEC2B7v160006IRS2_S3_LPv0EEEOT_OT0_
FNDA:1,_ZNSt3__14pairIPKfPfEC2B7v160006IS2_S3_LPv0EEEOT_OT0_
FNDA:1,_ZNSt3__14pairIPKfS2_EC1B7v160006IS2_S2_LPv0EEEOT_OT0_
FNDA:1,_ZNSt3__14pairIPKfS2_EC2B7v160006IS2_S2_LPv0EEEOT_OT0_
FNDA:3,_ZNSt3__14pairIffEC1B7v160006IffLPv0EEEOT_OT0_
FNDA:3,_ZNSt3__14pairIffEC2B7v160006IffLPv0EEEOT_OT0_
FNDA:8,_ZNSt3__14pairIllEC2B7v160006IiiLPv0EEEOT_OT0_
FNDA:1,_ZNSt3__19make_pairB7v160006IPKfPfEENS_4pairINS_18__unwrap_ref_decayIT_E4typeENS5_IT0_E4typeEEEOS6_OS9_
FNDA:1,_ZNSt3__19make_pairB7v160006IPKfS2_EENS_4pairINS_18__unwrap_ref_decayIT_E4typeENS4_IT0_E4typeEEEOS5_OS8_
FNDA:1,_ZNSt3__19make_pairB7v160006IRPKfPfEENS_4pairINS_18__unwrap_ref_decayIT_E4typeENS6_IT0_E4typeEEEOS7_OSA_
FNF:12
FNH:12
DA:219,20
DA:222,20
DA:542,3
DA:544,3
DA:545,3
LF:5
LH:5
end_of_record
TN:
SF:/Library/Developer/CommandLineTools/SDKs/MacOSX14.2.sdk/usr/include/c++/v1/__utility/swap.h
FN:37,42,_ZNSt3__14swapB7v160006IP6EntityEENS_9enable_ifIXaasr21is_move_constructibleIT_EE5valuesr18is_move_assignableIS4_EE5valueEvE4typeERS4_S7_
FNDA:12,_ZNSt3__14swapB7v160006IP6EntityEENS_9enable_ifIXaasr21is_move_constructibleIT_EE5valuesr18is_move_assignableIS4_EE5valueEvE4typeERS4_S7_
FNF:1
FNH:1
DA:37,12
DA:39,12
DA:40,12
DA:41,12
DA:42,12
LF:5
LH:5
end_of_record
TN:
SF:/Library/Developer/CommandLineTools/SDKs/MacOSX14.2.sdk/usr/include/c++/v1/array
FN:217,_ZNSt3__15arrayIdLm4EEixB7v160006Em
FN:222,_ZNKSt3__15arrayIdLm4EEixB7v160006Em
FNDA:4649,_ZNSt3__15arrayIdLm4EEixB7v160006Em
FNDA:7744,_ZNKSt3__15arrayIdLm4EEixB7v160006Em
FNF:2
FNH:2
DA:217,4649
DA:218,4649
DA:219,4649
DA:222,7744
DA:223,7744
DA:224,7744
LF:6
LH:6
end_of_record
TN:
SF:/Library/Developer/CommandLineTools/SDKs/MacOSX14.2.sdk/usr/include/c++/v1/cstring
FN:103,_ZNSt3__118__constexpr_strlenB7v160006EPKc
FNDA:128,_ZNSt3__118__constexpr_strlenB7v160006EPKc
FNF:1
FNH:1
DA:103,128
DA:114,128
LF:2
LH:2
end_of_record
TN:
SF:/Library/Developer/CommandLineTools/SDKs/MacOSX14.2.sdk/usr/include/c++/v1/initializer_list
FN:85,_ZNKSt16initializer_listINSt3__14pairIffEEE4sizeB7v160006Ev
FN:85,_ZNKSt16initializer_listIfE4sizeB7v160006Ev
FN:89,_ZNKSt16initializer_listINSt3__14pairIffEEE5beginB7v160006Ev
FN:89,_ZNKSt16initializer_listIfE5beginB7v160006Ev
FN:93,_ZNKSt16initializer_listINSt3__14pairIffEEE3endB7v160006Ev
FN:93,_ZNKSt16initializer_listIfE3endB7v160006Ev
FNDA:3,_ZNKSt16initializer_listINSt3__14pairIffEEE4sizeB7v160006Ev
FNDA:3,_ZNKSt16initializer_listIfE4sizeB7v160006Ev
FNDA:1,_ZNKSt16initializer_listINSt3__14pairIffEEE5beginB7v160006Ev
FNDA:1,_ZNKSt16initializer_listIfE5beginB7v160006Ev
FNDA:1,_ZNKSt16initializer_listINSt3__14pairIffEEE3endB7v160006Ev
FNDA:1,_ZNKSt16initializer_listIfE3endB7v160006Ev
FNF:6
FNH:6
DA:85,6
DA:89,2
DA:93,2
LF:3
LH:3
end_of_record
TN:
SF:/Library/Developer/CommandLineTools/SDKs/MacOSX14.2.sdk/usr/include/c++/v1/ios
FN:359,_ZNKSt3__18ios_base5rdbufB7v160006Ev
FN:470,_ZNKSt3__18ios_base5flagsB7v160006Ev
FN:532,_ZNKSt3__18ios_base5widthB7v160006Ev
FN:539,_ZNSt3__18ios_base5widthB7v160006El
FN:557,_ZNSt3__18ios_base8setstateB7v160006Ej
FN:634,_ZNSt3__19basic_iosIcNS_11char_traitsIcEEE8setstateB7v160006Ej
FN:737,_ZNKSt3__19basic_iosIcNS_11char_traitsIcEEE5rdbufB7v160006Ev
FN:775,_ZNKSt3__19basic_iosIcNS_11char_traitsIcEEE5widenB7v160006Ec
FN:783,_ZNKSt3__19basic_iosIcNS_11char_traitsIcEEE4fillB7v160006Ev
FNDA:169,_ZNKSt3__18ios_base5rdbufB7v160006Ev
FNDA:167,_ZNKSt3__18ios_base5flagsB7v160006Ev
FNDA:167,_ZNKSt3__18ios_base5widthB7v160006Ev
FNDA:167,_ZNSt3__18ios_base5widthB7v160006El
FNDA:0,_ZNSt3__18ios_base8setstateB7v160006Ej
FNDA:0,_ZNSt3__19basic_iosIcNS_11char_traitsIcEEE8setstateB7v160006Ej
FNDA:169,_ZNKSt3__19basic_iosIcNS_11char_traitsIcEEE5rdbufB7v160006Ev
FNDA:11,_ZNKSt3__19basic_iosIcNS_11char_traitsIcEEE5widenB7v160006Ec
FNDA:167,_ZNKSt3__19basic_iosIcNS_11char_traitsIcEEE4fillB7v160006Ev
FNF:9
FNH:7
DA:359,169
DA:470,167
DA:472,167
DA:532,167
DA:534,167
DA:539,167
DA:541,167
DA:542,167
DA:543,167
DA:557,0
DA:559,0
DA:560,0
DA:634,0
DA:737,169
DA:739,169
DA:775,11
DA:777,11
DA:778,0
DA:783,167
DA:785,167
DA:786,5
DA:787,167
LF:22
LH:17
end_of_record
TN:
SF:/Library/Developer/CommandLineTools/SDKs/MacOSX14.2.sdk/usr/include/c++/v1/limits
FN:209,_ZNSt3__123__libcpp_numeric_limitsIlLb1EE3minB7v160006Ev
FN:210,_ZNSt3__123__libcpp_numeric_limitsIlLb1EE3maxB7v160006Ev
FN:458,_ZNSt3__114numeric_limitsIlE3minB7v160006Ev
FN:459,_ZNSt3__114numeric_limitsIlE3maxB7v160006Ev
FNDA:8,_ZNSt3__123__libcpp_numeric_limitsIlLb1EE3minB7v160006Ev
FNDA:244,_ZNSt3__123__libcpp_numeric_limitsIlLb1EE3maxB7v160006Ev
FNDA:8,_ZNSt3__114numeric_limitsIlE3minB7v160006Ev
FNDA:244,_ZNSt3__114numeric_limitsIlE3maxB7v160006Ev
FNF:4
FNH:4
DA:209,8
DA:210,244
DA:458,8
DA:459,244
LF:4
LH:4
end_of_record
TN:
SF:/Library/Developer/CommandLineTools/SDKs/MacOSX14.2.sdk/usr/include/c++/v1/locale
FN:1415,_ZNSt3__116__pad_and_outputB7v160006IcNS_11char_traitsIcEEEENS_19ostreambuf_iteratorIT_T0_EES6_PKS4_S8_S8_RNS_8ios_baseES4_
FNDA:167,_ZNSt3__116__pad_and_outputB7v160006IcNS_11char_traitsIcEEEENS_19ostreambuf_iteratorIT_T0_EES6_PKS4_S8_S8_RNS_8ios_baseES4_
FNF:1
FNH:1
DA:1415,167
DA:1419,167
DA:1420,0
DA:1421,167
DA:1422,167
DA:1423,167
DA:1424,0
DA:1426,167
DA:1427,167
DA:1428,167
DA:1430,0
DA:1432,0
DA:1433,0
DA:1435,0
DA:1436,167
DA:1438,0
DA:1439,0
DA:1441,0
DA:1442,0
DA:1444,0
DA:1445,167
DA:1446,167
DA:1448,165
DA:1450,0
DA:1451,0
DA:1453,165
DA:1454,167
DA:1455,167
DA:1456,167
LF:29
LH:16
end_of_record
TN:
SF:/Library/Developer/CommandLineTools/SDKs/MacOSX14.2.sdk/usr/include/c++/v1/math.h
FN:659,659,_Z3cosB7v160006f
FN:893,893,_Z3sinB7v160006f
FN:929,929,_Z4sqrtB7v160006f
FNDA:8,_Z3cosB7v160006f
FNDA:8,_Z3sinB7v160006f
FNDA:2,_Z4sqrtB7v160006f
FNF:3
FNH:3
DA:659,8
DA:893,8
DA:929,2
LF:3
LH:3
end_of_record
TN:
SF:/Library/Developer/CommandLineTools/SDKs/MacOSX14.2.sdk/usr/include/c++/v1/new
FN:174,_ZSt28__throw_bad_array_new_lengthB7v160006v
FN:273,_ZNSt3__124__is_overaligned_for_newB7v160006Em
FN:283,_ZNSt3__121__libcpp_operator_newB7v160006IJmEEEPvDpT_
FN:283,_ZNSt3__121__libcpp_operator_newB7v160006IJmSt11align_val_tEEEPvDpT_
FN:293,_ZNSt3__124__libcpp_operator_deleteB7v160006IJPvEEEvDpT_
FN:293,_ZNSt3__124__libcpp_operator_deleteB7v160006IJPvSt11align_val_tEEEvDpT_
FN:302,_ZNSt3__117__libcpp_allocateB7v160006Emm
FN:316,_ZNSt3__127__do_deallocate_handle_sizeB7v160006IJEEEvPvmDpT_
FN:316,_ZNSt3__127__do_deallocate_handle_sizeB7v160006IJSt11align_val_tEEEvPvmDpT_
FN:326,_ZNSt3__119__libcpp_deallocateB7v160006EPvmm
FNDA:0,_ZSt28__throw_bad_array_new_lengthB7v160006v
FNDA:727,_ZNSt3__124__is_overaligned_for_newB7v160006Em
FNDA:366,_ZNSt3__121__libcpp_operator_newB7v160006IJmEEEPvDpT_
FNDA:0,_ZNSt3__121__libcpp_operator_newB7v160006IJmSt11align_val_tEEEPvDpT_
FNDA:361,_ZNSt3__124__libcpp_operator_deleteB7v160006IJPvEEEvDpT_
FNDA:0,_ZNSt3__124__libcpp_operator_deleteB7v160006IJPvSt11align_val_tEEEvDpT_
FNDA:366,_ZNSt3__117__libcpp_allocateB7v160006Emm
FNDA:361,_ZNSt3__127__do_deallocate_handle_sizeB7v160006IJEEEvPvmDpT_
FNDA:0,_ZNSt3__127__do_deallocate_handle_sizeB7v160006IJSt11align_val_tEEEvPvmDpT_
FNDA:361,_ZNSt3__119__libcpp_deallocateB7v160006EPvmm
FNF:10
FNH:6
DA:174,0
DA:177,0
DA:273,727
DA:275,727
DA:283,366
DA:285,366
DA:293,361
DA:295,361
DA:299,361
DA:302,366
DA:304,366
DA:305,0
DA:306,0
DA:311,366
DA:312,366
DA:316,361
DA:319,361
DA:326,361
DA:331,361
DA:332,0
DA:333,0
DA:335,361
DA:338,361
LF:23
LH:17
end_of_record
TN:
SF:/Library/Developer/CommandLineTools/SDKs/MacOSX14.2.sdk/usr/include/c++/v1/ostream
FN:1036,_ZNSt3__14endlB7v160006IcNS_11char_traitsIcEEEERNS_13basic_ostreamIT_T0_EES7_
FN:1082,_ZNSt3__1lsB7v160006IcNS_11char_traitsIcEENS_9allocatorIcEEEERNS_13basic_ostreamIT_T0_EES9_RKNS_12basic_stringIS6_S7_T1_EE
FN:221,_ZNSt3__113basic_ostreamIcNS_11char_traitsIcEEElsB7v160006EPFRS3_S4_E
FN:295,_ZNKSt3__113basic_ostreamIcNS_11char_traitsIcEEE6sentrycvbB7v160006Ev
FN:751,_ZNSt3__124__put_character_sequenceB7v160006IcNS_11char_traitsIcEEEERNS_13basic_ostreamIT_T0_EES7_PKS4_m
FN:899,_ZNSt3__1lsB7v160006INS_11char_traitsIcEEEERNS_13basic_ostreamIcT_EES6_PKc
FNDA:6,_ZNSt3__14endlB7v160006IcNS_11char_traitsIcEEEERNS_13basic_ostreamIT_T0_EES7_
FNDA:28,_ZNSt3__1lsB7v160006IcNS_11char_traitsIcEENS_9allocatorIcEEEERNS_13basic_ostreamIT_T0_EES9_RKNS_12basic_stringIS6_S7_T1_EE
FNDA:48,_ZNSt3__113basic_ostreamIcNS_11char_traitsIcEEElsB7v160006EPFRS3_S4_E
FNDA:167,_ZNKSt3__113basic_ostreamIcNS_11char_traitsIcEEE6sentrycvbB7v160006Ev
FNDA:167,_ZNSt3__124__put_character_sequenceB7v160006IcNS_11char_traitsIcEEEERNS_13basic_ostreamIT_T0_EES7_PKS4_m
FNDA:69,_ZNSt3__1lsB7v160006INS_11char_traitsIcEEEERNS_13basic_ostreamIcT_EES6_PKc
FNF:6
FNH:6
DA:221,48
DA:222,48
DA:295,167
DA:751,167
DA:758,167
DA:759,167
DA:762,334
DA:763,167
DA:764,167
DA:765,0
DA:766,167
DA:767,167
DA:768,167
DA:769,334
DA:770,0
DA:771,167
DA:773,167
DA:776,0
DA:777,0
DA:779,167
DA:780,0
DA:899,69
DA:901,69
DA:1036,6
DA:1038,6
DA:1039,6
DA:1040,6
DA:1082,28
DA:1085,28
LF:29
LH:24
end_of_record
TN:
SF:/Library/Developer/CommandLineTools/SDKs/MacOSX14.2.sdk/usr/include/c++/v1/stdexcept
FN:154,_ZNSt12length_errorC1B7v160006EPKc
FN:154,_ZNSt12length_errorC2B7v160006EPKc
FN:254,_ZNSt3__120__throw_length_errorB7v160006EPKc
FNDA:0,_ZNSt12length_errorC1B7v160006EPKc
FNDA:0,_ZNSt12length_errorC2B7v160006EPKc
FNDA:0,_ZNSt3__120__throw_length_errorB7v160006EPKc
FNF:3
FNH:0
DA:154,0
DA:254,0
DA:257,0
DA:262,0
LF:4
LH:0
end_of_record
TN:
SF:/Library/Developer/CommandLineTools/SDKs/MacOSX14.2.sdk/usr/include/c++/v1/stdlib.h
FN:126,127,_Z3absB7v160006d
FNDA:4,_Z3absB7v160006d
FNF:1
FNH:1
DA:126,4
DA:127,4
LF:2
LH:2
end_of_record
TN:
SF:/Library/Developer/CommandLineTools/SDKs/MacOSX14.2.sdk/usr/include/c++/v1/streambuf
FN:231,_ZNSt3__115basic_streambufIcNS_11char_traitsIcEEE5sputnB7v160006EPKcl
FNDA:165,_ZNSt3__115basic_streambufIcNS_11char_traitsIcEEE5sputnB7v160006EPKcl
FNF:1
FNH:1
DA:231,165
DA:232,165
LF:2
LH:2
end_of_record
TN:
SF:/Library/Developer/CommandLineTools/SDKs/MacOSX14.2.sdk/usr/include/c++/v1/string
FN:1077,_ZNKSt3__112basic_stringIcNS_11char_traitsIcEENS_9allocatorIcEEE4sizeB7v160006Ev
FN:1462,_ZNKSt3__112basic_stringIcNS_11char_traitsIcEENS_9allocatorIcEEE4dataB7v160006Ev
FN:1465,_ZNSt3__112basic_stringIcNS_11char_traitsIcEENS_9allocatorIcEEE4dataB7v160006Ev
FN:1679,_ZNKSt3__112basic_stringIcNS_11char_traitsIcEENS_9allocatorIcEEE9__is_longB7v160006Ev
FN:1679,_ZNKSt3__112basic_stringIjNS_11char_traitsIjEENS_9allocatorIjEEE9__is_longB7v160006Ev
FN:1746,_ZNSt3__112basic_stringIjNS_11char_traitsIjEENS_9allocatorIjEEE7__allocB7v160006Ev
FN:1757,_ZNKSt3__112basic_stringIcNS_11char_traitsIcEENS_9allocatorIcEEE16__get_short_sizeB7v160006Ev
FN:1766,_ZNKSt3__112basic_stringIcNS_11char_traitsIcEENS_9allocatorIcEEE15__get_long_sizeB7v160006Ev
FN:1779,_ZNKSt3__112basic_stringIjNS_11char_traitsIjEENS_9allocatorIjEEE14__get_long_capB7v160006Ev
FN:1787,_ZNSt3__112basic_stringIcNS_11char_traitsIcEENS_9allocatorIcEEE18__get_long_pointerB7v160006Ev
FN:1787,_ZNSt3__112basic_stringIjNS_11char_traitsIjEENS_9allocatorIjEEE18__get_long_pointerB7v160006Ev
FN:1790,_ZNKSt3__112basic_stringIcNS_11char_traitsIcEENS_9allocatorIcEEE18__get_long_pointerB7v160006Ev
FN:1793,_ZNSt3__112basic_stringIcNS_11char_traitsIcEENS_9allocatorIcEEE19__get_short_pointerB7v160006Ev
FN:1796,_ZNKSt3__112basic_stringIcNS_11char_traitsIcEENS_9allocatorIcEEE19__get_short_pointerB7v160006Ev
FN:1799,_ZNSt3__112basic_stringIcNS_11char_traitsIcEENS_9allocatorIcEEE13__get_pointerB7v160006Ev
FN:1802,_ZNKSt3__112basic_stringIcNS_11char_traitsIcEENS_9allocatorIcEEE13__get_pointerB7v160006Ev
FN:2358,_ZNSt3__112basic_stringIjNS_11char_traitsIjEENS_9allocatorIjEEED1Ev
FN:2358,_ZNSt3__112basic_stringIjNS_11char_traitsIjEENS_9allocatorIjEEED2Ev
FN:4572,_ZNSt3__18literals15string_literalsli1sB7v160006EPKcm
FN:879,_ZNSt3__112basic_stringIcNS_11char_traitsIcEENS_9allocatorIcEEEC1B7v160006IDnEEPKc
FN:879,_ZNSt3__112basic_stringIcNS_11char_traitsIcEENS_9allocatorIcEEEC2B7v160006IDnEEPKc
FN:893,_ZNSt3__112basic_stringIcNS_11char_traitsIcEENS_9allocatorIcEEEC1B7v160006EPKcm
FN:893,_ZNSt3__112basic_stringIcNS_11char_traitsIcEENS_9allocatorIcEEEC2B7v160006EPKcm
FN:908,_ZNSt3__112basic_stringIcNS_11char_traitsIcEENS_9allocatorIcEEEC1B7v160006Emc
FN:908,_ZNSt3__112basic_stringIcNS_11char_traitsIcEENS_9allocatorIcEEEC2B7v160006Emc
FNDA:481,_ZNKSt3__112basic_stringIcNS_11char_traitsIcEENS_9allocatorIcEEE4sizeB7v160006Ev
FNDA:473,_ZNKSt3__112basic_stringIcNS_11char_traitsIcEENS_9allocatorIcEEE4dataB7v160006Ev
FNDA:0,_ZNSt3__112basic_stringIcNS_11char_traitsIcEENS_9allocatorIcEEE4dataB7v160006Ev
FNDA:1135,_ZNKSt3__112basic_stringIcNS_11char_traitsIcEENS_9allocatorIcEEE9__is_longB7v160006Ev
FNDA:1,_ZNKSt3__112basic_stringIjNS_11char_traitsIjEENS_9allocatorIjEEE9__is_longB7v160006Ev
FNDA:1,_ZNSt3__112basic_stringIjNS_11char_traitsIjEENS_9allocatorIjEEE7__allocB7v160006Ev
FNDA:374,_ZNKSt3__112basic_stringIcNS_11char_traitsIcEENS_9allocatorIcEEE16__get_short_sizeB7v160006Ev
FNDA:107,_ZNKSt3__112basic_stringIcNS_11char_traitsIcEENS_9allocatorIcEEE15__get_long_sizeB7v160006Ev
FNDA:1,_ZNKSt3__112basic_stringIjNS_11char_traitsIjEENS_9allocatorIjEEE14__get_long_capB7v160006Ev
FNDA:0,_ZNSt3__112basic_stringIcNS_11char_traitsIcEENS_9allocatorIcEEE18__get_long_pointerB7v160006Ev
FNDA:1,_ZNSt3__112basic_stringIjNS_11char_traitsIjEENS_9allocatorIjEEE18__get_long_pointerB7v160006Ev
FNDA:149,_ZNKSt3__112basic_stringIcNS_11char_traitsIcEENS_9allocatorIcEEE18__get_long_pointerB7v160006Ev
FNDA:40,_ZNSt3__112basic_stringIcNS_11char_traitsIcEENS_9allocatorIcEEE19__get_short_pointerB7v160006Ev
FNDA:324,_ZNKSt3__112basic_stringIcNS_11char_traitsIcEENS_9allocatorIcEEE19__get_short_pointerB7v160006Ev
FNDA:3,_ZNSt3__112basic_stringIcNS_11char_traitsIcEENS_9allocatorIcEEE13__get_pointerB7v160006Ev
FNDA:473,_ZNKSt3__112basic_stringIcNS_11char_traitsIcEENS_9allocatorIcEEE13__get_pointerB7v160006Ev
FNDA:1,_ZNSt3__112basic_stringIjNS_11char_traitsIjEENS_9allocatorIjEEED1Ev
FNDA:1,_ZNSt3__112basic_stringIjNS_11char_traitsIjEENS_9allocatorIjEEED2Ev
FNDA:8,_ZNSt3__18literals15string_literalsli1sB7v160006EPKcm
FNDA:45,_ZNSt3__112basic_stringIcNS_11char_traitsIcEENS_9allocatorIcEEEC1B7v160006IDnEEPKc
FNDA:45,_ZNSt3__112basic_stringIcNS_11char_traitsIcEENS_9allocatorIcEEEC2B7v160006IDnEEPKc
FNDA:37,_ZNSt3__112basic_stringIcNS_11char_traitsIcEENS_9allocatorIcEEEC1B7v160006EPKcm
FNDA:37,_ZNSt3__112basic_stringIcNS_11char_traitsIcEENS_9allocatorIcEEEC2B7v160006EPKcm
FNDA:4,_ZNSt3__112basic_stringIcNS_11char_traitsIcEENS_9allocatorIcEEEC1B7v160006Emc
FNDA:4,_ZNSt3__112basic_stringIcNS_11char_traitsIcEENS_9allocatorIcEEEC2B7v160006Emc
FNF:25
FNH:23
DA:879,90
DA:880,90
DA:881,45
DA:882,45
DA:883,45
DA:884,90
DA:893,74
DA:894,74
DA:895,37
DA:896,37
DA:897,37
DA:898,74
DA:908,8
DA:909,8
DA:910,4
DA:911,4
DA:912,8
DA:1077,481
DA:1078,481
DA:1462,473
DA:1465,0
DA:1679,1136
DA:1682,1136
DA:1746,1
DA:1757,374
DA:1759,374
DA:1766,107
DA:1767,107
DA:1779,1
DA:1780,1
DA:1787,1
DA:1788,1
DA:1790,149
DA:1791,149
DA:1793,40
DA:1794,40
DA:1796,324
DA:1797,324
DA:1799,3
DA:1800,3
DA:1802,473
DA:1803,473
DA:2358,2
DA:2359,1
DA:2360,1
DA:2361,1
DA:2362,1
DA:2363,2
DA:4572,8
DA:4574,8
LF:50
LH:49
end_of_record
TN:
SF:/Library/Developer/CommandLineTools/SDKs/MacOSX14.2.sdk/usr/include/c++/v1/tuple
FN:1381,_ZNSt3__13getB7v160006ILm0EJNS_17reference_wrapperIN5boost7numeric6odeint19explicit_generic_rkILm4ELm4ENS_5arrayIdLm4EEEdS7_dNS4_13array_algebraENS4_18default_operationsENS4_17initially_resizerEEEEENS_12placeholders4__phILi1EEEEEERNS_13tuple_elementIXT_ENS_5tupleIJDpT0_EEEE4typeERSK_
FN:1381,_ZNSt3__13getB7v160006ILm0EJNS_17reference_wrapperIN5boost7numeric6odeint21explicit_stepper_baseINS4_19explicit_generic_rkILm4ELm4ENS_5arrayIdLm4EEEdS8_dNS4_13array_algebraENS4_18default_operationsENS4_17initially_resizerEEELt4ES8_dS8_dS9_SA_SB_EEEENS_12placeholders4__phILi1EEEEEERNS_13tuple_elementIXT_ENS_5tupleIJDpT0_EEEE4typeERSM_
FN:1381,_ZNSt3__13getB7v160006ILm0EJRKNS_5arrayIdLm4EEEEEERNS_13tuple_elementIXT_ENS_5tupleIJDpT0_EEEE4typeERS9_
FN:1381,_ZNSt3__13getB7v160006ILm1EJNS_17reference_wrapperIN5boost7numeric6odeint19explicit_generic_rkILm4ELm4ENS_5arrayIdLm4EEEdS7_dNS4_13array_algebraENS4_18default_operationsENS4_17initially_resizerEEEEENS_12placeholders4__phILi1EEEEEERNS_13tuple_elementIXT_ENS_5tupleIJDpT0_EEEE4typeERSK_
FN:1381,_ZNSt3__13getB7v160006ILm1EJNS_17reference_wrapperIN5boost7numeric6odeint21explicit_stepper_baseINS4_19explicit_generic_rkILm4ELm4ENS_5arrayIdLm4EEEdS8_dNS4_13array_algebraENS4_18default_operationsENS4_17initially_resizerEEELt4ES8_dS8_dS9_SA_SB_EEEENS_12placeholders4__phILi1EEEEEERNS_13tuple_elementIXT_ENS_5tupleIJDpT0_EEEE4typeERSM_
FN:344,_ZNSt3__112__tuple_leafILm0ENS_17reference_wrapperIN5boost7numeric6odeint19explicit_generic_rkILm4ELm4ENS_5arrayIdLm4EEEdS7_dNS4_13array_algebraENS4_18default_operationsENS4_17initially_resizerEEEEELb0EEC2B7v160006ISC_vEEOT_
FN:344,_ZNSt3__112__tuple_leafILm0ENS_17reference_wrapperIN5boost7numeric6odeint21explicit_stepper_baseINS4_19explicit_generic_rkILm4ELm4ENS_5arrayIdLm4EEEdS8_dNS4_13array_algebraENS4_18default_operationsENS4_17initially_resizerEEELt4ES8_dS8_dS9_SA_SB_EEEELb0EEC2B7v160006ISE_vEEOT_
FN:344,_ZNSt3__112__tuple_leafILm0ERKNS_5arrayIdLm4EEELb0EEC2B7v160006IS4_vEEOT_
FN:386,_ZNSt3__112__tuple_leafILm0ENS_17reference_wrapperIN5boost7numeric6odeint19explicit_generic_rkILm4ELm4ENS_5arrayIdLm4EEEdS7_dNS4_13array_algebraENS4_18default_operationsENS4_17initially_resizerEEEEELb0EE3getB7v160006Ev
FN:386,_ZNSt3__112__tuple_leafILm0ENS_17reference_wrapperIN5boost7numeric6odeint21explicit_stepper_baseINS4_19explicit_generic_rkILm4ELm4ENS_5arrayIdLm4EEEdS8_dNS4_13array_algebraENS4_18default_operationsENS4_17initially_resizerEEELt4ES8_dS8_dS9_SA_SB_EEEELb0EE3getB7v160006Ev
FN:386,_ZNSt3__112__tuple_leafILm0ERKNS_5arrayIdLm4EEELb0EE3getB7v160006Ev
FN:423,_ZNSt3__112__tuple_leafILm1ENS_12placeholders4__phILi1EEELb1EEC2B7v160006IRKS3_vEEOT_
FN:458,_ZNSt3__112__tuple_leafILm1ENS_12placeholders4__phILi1EEELb1EE3getB7v160006Ev
FN:490,_ZNSt3__112__tuple_implINS_15__tuple_indicesIJLm0EEEEJRKNS_5arrayIdLm4EEEEEC1B7v160006IJLm0EEJS6_EJEJEJS6_EEENS1_IJXspT_EEEENS_13__tuple_typesIJDpT0_EEENS1_IJXspT1_EEEENSA_IJDpT2_EEEDpOT3_
FN:490,_ZNSt3__112__tuple_implINS_15__tuple_indicesIJLm0EEEEJRKNS_5arrayIdLm4EEEEEC2B7v160006IJLm0EEJS6_EJEJEJS6_EEENS1_IJXspT_EEEENS_13__tuple_typesIJDpT0_EEENS1_IJXspT1_EEEENSA_IJDpT2_EEEDpOT3_
FN:490,_ZNSt3__112__tuple_implINS_15__tuple_indicesIJLm0ELm1EEEEJNS_17reference_wrapperIN5boost7numeric6odeint19explicit_generic_rkILm4ELm4ENS_5arrayIdLm4EEEdS9_dNS6_13array_algebraENS6_18default_operationsENS6_17initially_resizerEEEEENS_12placeholders4__phILi1EEEEEC1B7v160006IJLm0ELm1EEJSE_SH_EJEJEJSE_RKSH_EEENS1_IJXspT_EEEENS_13__tuple_typesIJDpT0_EEENS1_IJXspT1_EEEENSN_IJDpT2_EEEDpOT3_
FN:490,_ZNSt3__112__tuple_implINS_15__tuple_indicesIJLm0ELm1EEEEJNS_17reference_wrapperIN5boost7numeric6odeint19explicit_generic_rkILm4ELm4ENS_5arrayIdLm4EEEdS9_dNS6_13array_algebraENS6_18default_operationsENS6_17initially_resizerEEEEENS_12placeholders4__phILi1EEEEEC2B7v160006IJLm0ELm1EEJSE_SH_EJEJEJSE_RKSH_EEENS1_IJXspT_EEEENS_13__tuple_typesIJDpT0_EEENS1_IJXspT1_EEEENSN_IJDpT2_EEEDpOT3_
FN:490,_ZNSt3__112__tuple_implINS_15__tuple_indicesIJLm0ELm1EEEEJNS_17reference_wrapperIN5boost7numeric6odeint21explicit_stepper_baseINS6_19explicit_generic_rkILm4ELm4ENS_5arrayIdLm4EEEdSA_dNS6_13array_algebraENS6_18default_operationsENS6_17initially_resizerEEELt4ESA_dSA_dSB_SC_SD_EEEENS_12placeholders4__phILi1EEEEEC1B7v160006IJLm0ELm1EEJSG_SJ_EJEJEJSG_RKSJ_EEENS1_IJXspT_EEEENS_13__tuple_typesIJDpT0_EEENS1_IJXspT1_EEEENSP_IJDpT2_EEEDpOT3_
FN:490,_ZNSt3__112__tuple_implINS_15__tuple_indicesIJLm0ELm1EEEEJNS_17reference_wrapperIN5boost7numeric6odeint21explicit_stepper_baseINS6_19explicit_generic_rkILm4ELm4ENS_5arrayIdLm4EEEdSA_dNS6_13array_algebraENS6_18default_operationsENS6_17initially_resizerEEELt4ESA_dSA_dSB_SC_SD_EEEENS_12placeholders4__phILi1EEEEEC2B7v160006IJLm0ELm1EEJSG_SJ_EJEJEJSG_RKSJ_EEENS1_IJXspT_EEEENS_13__tuple_typesIJDpT0_EEENS1_IJXspT1_EEEENSP_IJDpT2_EEEDpOT3_
FN:642,_ZNSt3__15tupleIJRKNS_5arrayIdLm4EEEEEC1B7v160006INS_4_AndELi0EEES4_
FN:642,_ZNSt3__15tupleIJRKNS_5arrayIdLm4EEEEEC2B7v160006INS_4_AndELi0EEES4_
FN:721,_ZNSt3__15tupleIJNS_17reference_wrapperIN5boost7numeric6odeint19explicit_generic_rkILm4ELm4ENS_5arrayIdLm4EEEdS7_dNS4_13array_algebraENS4_18default_operationsENS4_17initially_resizerEEEEENS_12placeholders4__phILi1EEEEEC1B7v160006IJSC_RKSF_ELi0EEEDpOT_
FN:721,_ZNSt3__15tupleIJNS_17reference_wrapperIN5boost7numeric6odeint19explicit_generic_rkILm4ELm4ENS_5arrayIdLm4EEEdS7_dNS4_13array_algebraENS4_18default_operationsENS4_17initially_resizerEEEEENS_12placeholders4__phILi1EEEEEC2B7v160006IJSC_RKSF_ELi0EEEDpOT_
FN:721,_ZNSt3__15tupleIJNS_17reference_wrapperIN5boost7numeric6odeint21explicit_stepper_baseINS4_19explicit_generic_rkILm4ELm4ENS_5arrayIdLm4EEEdS8_dNS4_13array_algebraENS4_18default_operationsENS4_17initially_resizerEEELt4ES8_dS8_dS9_SA_SB_EEEENS_12placeholders4__phILi1EEEEEC1B7v160006IJSE_RKSH_ELi0EEEDpOT_
FN:721,_ZNSt3__15tupleIJNS_17reference_wrapperIN5boost7numeric6odeint21explicit_stepper_baseINS4_19explicit_generic_rkILm4ELm4ENS_5arrayIdLm4EEEdS8_dNS4_13array_algebraENS4_18default_operationsENS4_17initially_resizerEEELt4ES8_dS8_dS9_SA_SB_EEEENS_12placeholders4__phILi1EEEEEC2B7v160006IJSE_RKSH_ELi0EEEDpOT_
FNDA:2,_ZNSt3__13getB7v160006ILm0EJNS_17reference_wrapperIN5boost7numeric6odeint19explicit_generic_rkILm4ELm4ENS_5arrayIdLm4EEEdS7_dNS4_13array_algebraENS4_18default_operationsENS4_17initially_resizerEEEEENS_12placeholders4__phILi1EEEEEERNS_13tuple_elementIXT_ENS_5tupleIJDpT0_EEEE4typeERSK_
FNDA:2,_ZNSt3__13getB7v160006ILm0EJNS_17reference_wrapperIN5boost7numeric6odeint21explicit_stepper_baseINS4_19explicit_generic_rkILm4ELm4ENS_5arrayIdLm4EEEdS8_dNS4_13array_algebraENS4_18default_operationsENS4_17initially_resizerEEELt4ES8_dS8_dS9_SA_SB_EEEENS_12placeholders4__phILi1EEEEEERNS_13tuple_elementIXT_ENS_5tupleIJDpT0_EEEE4typeERSM_
FNDA:4,_ZNSt3__13getB7v160006ILm0EJRKNS_5arrayIdLm4EEEEEERNS_13tuple_elementIXT_ENS_5tupleIJDpT0_EEEE4typeERS9_
FNDA:2,_ZNSt3__13getB7v160006ILm1EJNS_17reference_wrapperIN5boost7numeric6odeint19explicit_generic_rkILm4ELm4ENS_5arrayIdLm4EEEdS7_dNS4_13array_algebraENS4_18default_operationsENS4_17initially_resizerEEEEENS_12placeholders4__phILi1EEEEEERNS_13tuple_elementIXT_ENS_5tupleIJDpT0_EEEE4typeERSK_
FNDA:2,_ZNSt3__13getB7v160006ILm1EJNS_17reference_wrapperIN5boost7numeric6odeint21explicit_stepper_baseINS4_19explicit_generic_rkILm4ELm4ENS_5arrayIdLm4EEEdS8_dNS4_13array_algebraENS4_18default_operationsENS4_17initially_resizerEEELt4ES8_dS8_dS9_SA_SB_EEEENS_12placeholders4__phILi1EEEEEERNS_13tuple_elementIXT_ENS_5tupleIJDpT0_EEEE4typeERSM_
FNDA:121,_ZNSt3__112__tuple_leafILm0ENS_17reference_wrapperIN5boost7numeric6odeint19explicit_generic_rkILm4ELm4ENS_5arrayIdLm4EEEdS7_dNS4_13array_algebraENS4_18default_operationsENS4_17initially_resizerEEEEELb0EEC2B7v160006ISC_vEEOT_
FNDA:121,_ZNSt3__112__tuple_leafILm0ENS_17reference_wrapperIN5boost7numeric6odeint21explicit_stepper_baseINS4_19explicit_generic_rkILm4ELm4ENS_5arrayIdLm4EEEdS8_dNS4_13array_algebraENS4_18default_operationsENS4_17initially_resizerEEELt4ES8_dS8_dS9_SA_SB_EEEELb0EEC2B7v160006ISE_vEEOT_
FNDA:4,_ZNSt3__112__tuple_leafILm0ERKNS_5arrayIdLm4EEELb0EEC2B7v160006IS4_vEEOT_
FNDA:2,_ZNSt3__112__tuple_leafILm0ENS_17reference_wrapperIN5boost7numeric6odeint19explicit_generic_rkILm4ELm4ENS_5arrayIdLm4EEEdS7_dNS4_13array_algebraENS4_18default_operationsENS4_17initially_resizerEEEEELb0EE3getB7v160006Ev
FNDA:2,_ZNSt3__112__tuple_leafILm0ENS_17reference_wrapperIN5boost7numeric6odeint21explicit_stepper_baseINS4_19explicit_generic_rkILm4ELm4ENS_5arrayIdLm4EEEdS8_dNS4_13array_algebraENS4_18default_operationsENS4_17initially_resizerEEELt4ES8_dS8_dS9_SA_SB_EEEELb0EE3getB7v160006Ev
FNDA:4,_ZNSt3__112__tuple_leafILm0ERKNS_5arrayIdLm4EEELb0EE3getB7v160006Ev
FNDA:242,_ZNSt3__112__tuple_leafILm1ENS_12placeholders4__phILi1EEELb1EEC2B7v160006IRKS3_vEEOT_
FNDA:4,_ZNSt3__112__tuple_leafILm1ENS_12placeholders4__phILi1EEELb1EE3getB7v160006Ev
FNDA:4,_ZNSt3__112__tuple_implINS_15__tuple_indicesIJLm0EEEEJRKNS_5arrayIdLm4EEEEEC1B7v160006IJLm0EEJS6_EJEJEJS6_EEENS1_IJXspT_EEEENS_13__tuple_typesIJDpT0_EEENS1_IJXspT1_EEEENSA_IJDpT2_EEEDpOT3_
FNDA:4,_ZNSt3__112__tuple_implINS_15__tuple_indicesIJLm0EEEEJRKNS_5arrayIdLm4EEEEEC2B7v160006IJLm0EEJS6_EJEJEJS6_EEENS1_IJXspT_EEEENS_13__tuple_typesIJDpT0_EEENS1_IJXspT1_EEEENSA_IJDpT2_EEEDpOT3_
FNDA:121,_ZNSt3__112__tuple_implINS_15__tuple_indicesIJLm0ELm1EEEEJNS_17reference_wrapperIN5boost7numeric6odeint19explicit_generic_rkILm4ELm4ENS_5arrayIdLm4EEEdS9_dNS6_13array_algebraENS6_18default_operationsENS6_17initially_resizerEEEEENS_12placeholders4__phILi1EEEEEC1B7v160006IJLm0ELm1EEJSE_SH_EJEJEJSE_RKSH_EEENS1_IJXspT_EEEENS_13__tuple_typesIJDpT0_EEENS1_IJXspT1_EEEENSN_IJDpT2_EEEDpOT3_
FNDA:121,_ZNSt3__112__tuple_implINS_15__tuple_indicesIJLm0ELm1EEEEJNS_17reference_wrapperIN5boost7numeric6odeint19explicit_generic_rkILm4ELm4ENS_5arrayIdLm4EEEdS9_dNS6_13array_algebraENS6_18default_operationsENS6_17initially_resizerEEEEENS_12placeholders4__phILi1EEEEEC2B7v160006IJLm0ELm1EEJSE_SH_EJEJEJSE_RKSH_EEENS1_IJXspT_EEEENS_13__tuple_typesIJDpT0_EEENS1_IJXspT1_EEEENSN_IJDpT2_EEEDpOT3_
FNDA:121,_ZNSt3__112__tuple_implINS_15__tuple_indicesIJLm0ELm1EEEEJNS_17reference_wrapperIN5boost7numeric6odeint21explicit_stepper_baseINS6_19explicit_generic_rkILm4ELm4ENS_5arrayIdLm4EEEdSA_dNS6_13array_algebraENS6_18default_operationsENS6_17initially_resizerEEELt4ESA_dSA_dSB_SC_SD_EEEENS_12placeholders4__phILi1EEEEEC1B7v160006IJLm0ELm1EEJSG_SJ_EJEJEJSG_RKSJ_EEENS1_IJXspT_EEEENS_13__tuple_typesIJDpT0_EEENS1_IJXspT1_EEEENSP_IJDpT2_EEEDpOT3_
FNDA:121,_ZNSt3__112__tuple_implINS_15__tuple_indicesIJLm0ELm1EEEEJNS_17reference_wrapperIN5boost7numeric6odeint21explicit_stepper_baseINS6_19explicit_generic_rkILm4ELm4ENS_5arrayIdLm4EEEdSA_dNS6_13array_algebraENS6_18default_operationsENS6_17initially_resizerEEELt4ESA_dSA_dSB_SC_SD_EEEENS_12placeholders4__phILi1EEEEEC2B7v160006IJLm0ELm1EEJSG_SJ_EJEJEJSG_RKSJ_EEENS1_IJXspT_EEEENS_13__tuple_typesIJDpT0_EEENS1_IJXspT1_EEEENSP_IJDpT2_EEEDpOT3_
FNDA:4,_ZNSt3__15tupleIJRKNS_5arrayIdLm4EEEEEC1B7v160006INS_4_AndELi0EEES4_
FNDA:4,_ZNSt3__15tupleIJRKNS_5arrayIdLm4EEEEEC2B7v160006INS_4_AndELi0EEES4_
FNDA:121,_ZNSt3__15tupleIJNS_17reference_wrapperIN5boost7numeric6odeint19explicit_generic_rkILm4ELm4ENS_5arrayIdLm4EEEdS7_dNS4_13array_algebraENS4_18default_operationsENS4_17initially_resizerEEEEENS_12placeholders4__phILi1EEEEEC1B7v160006IJSC_RKSF_ELi0EEEDpOT_
FNDA:121,_ZNSt3__15tupleIJNS_17reference_wrapperIN5boost7numeric6odeint19explicit_generic_rkILm4ELm4ENS_5arrayIdLm4EEEdS7_dNS4_13array_algebraENS4_18default_operationsENS4_17initially_resizerEEEEENS_12placeholders4__phILi1EEEEEC2B7v160006IJSC_RKSF_ELi0EEEDpOT_
FNDA:121,_ZNSt3__15tupleIJNS_17reference_wrapperIN5boost7numeric6odeint21explicit_stepper_baseINS4_19explicit_generic_rkILm4ELm4ENS_5arrayIdLm4EEEdS8_dNS4_13array_algebraENS4_18default_operationsENS4_17initially_resizerEEELt4ES8_dS8_dS9_SA_SB_EEEENS_12placeholders4__phILi1EEEEEC1B7v160006IJSE_RKSH_ELi0EEEDpOT_
FNDA:121,_ZNSt3__15tupleIJNS_17reference_wrapperIN5boost7numeric6odeint21explicit_stepper_baseINS4_19explicit_generic_rkILm4ELm4ENS_5arrayIdLm4EEEdS8_dNS4_13array_algebraENS4_18default_operationsENS4_17initially_resizerEEELt4ES8_dS8_dS9_SA_SB_EEEENS_12placeholders4__phILi1EEEEEC2B7v160006IJSE_RKSH_ELi0EEEDpOT_
FNF:25
FNH:25
DA:344,246
DA:345,246
DA:347,246
DA:386,8
DA:423,242
DA:424,242
DA:458,4
DA:490,492
DA:495,246
DA:497,492
DA:642,8
DA:644,8
DA:648,4
DA:649,8
DA:721,484
DA:723,484
DA:727,726
DA:1381,12
DA:1384,12
LF:19
LH:19
end_of_record
TN:
SF:/Library/Developer/CommandLineTools/SDKs/MacOSX14.2.sdk/usr/include/c++/v1/vector
FN:1026,_ZNSt3__16vectorIN2sf6VertexENS_9allocatorIS2_EEE18__construct_at_endIPS2_Li0EEEvT_S8_m
FN:1026,_ZNSt3__16vectorINS_4pairIffEENS_9allocatorIS2_EEE18__construct_at_endIPKS2_Li0EEEvT_S9_m
FN:1026,_ZNSt3__16vectorIfNS_9allocatorIfEEE18__construct_at_endIPKfLi0EEEvT_S7_m
FN:1185,_ZNSt3__16vectorIN2sf6VertexENS_9allocatorIS2_EEEC1ERKS5_
FN:1185,_ZNSt3__16vectorIN2sf6VertexENS_9allocatorIS2_EEEC2ERKS5_
FN:1263,_ZNSt3__16vectorINS_4pairIffEENS_9allocatorIS2_EEEC1B7v160006ESt16initializer_listIS2_E
FN:1263,_ZNSt3__16vectorINS_4pairIffEENS_9allocatorIS2_EEEC2B7v160006ESt16initializer_listIS2_E
FN:1263,_ZNSt3__16vectorIfNS_9allocatorIfEEEC1B7v160006ESt16initializer_listIfE
FN:1263,_ZNSt3__16vectorIfNS_9allocatorIfEEEC2B7v160006ESt16initializer_listIfE
FN:1421,_ZNSt3__16vectorI6EntityNS_9allocatorIS1_EEE5beginB7v160006Ev
FN:1439,_ZNSt3__16vectorI6EntityNS_9allocatorIS1_EEE3endB7v160006Ev
FN:1457,_ZNSt3__16vectorI6EntityNS_9allocatorIS1_EEEixB7v160006Em
FN:1457,_ZNSt3__16vectorINS_4pairIffEENS_9allocatorIS2_EEEixB7v160006Em
FN:1457,_ZNSt3__16vectorIfNS_9allocatorIfEEEixB7v160006Em
FN:1577,_ZNSt3__16vectorI6EntityNS_9allocatorIS1_EEE24__emplace_back_slow_pathIJfRKN2sf5ColorEdbbEEEvDpOT_
FN:1596,_ZNSt3__16vectorI6EntityNS_9allocatorIS1_EEE12emplace_backIJfRKN2sf5ColorEdbbEEERS1_DpOT_
FN:377,_ZNSt3__16vectorI6EntityNS_9allocatorIS1_EEEC1B7v160006Ev
FN:377,_ZNSt3__16vectorI6EntityNS_9allocatorIS1_EEEC2B7v160006Ev
FN:439,_ZNSt3__16vectorI6EntityNS_9allocatorIS1_EEE16__destroy_vectorC1ERS4_
FN:439,_ZNSt3__16vectorI6EntityNS_9allocatorIS1_EEE16__destroy_vectorC2ERS4_
FN:439,_ZNSt3__16vectorIN2sf6VertexENS_9allocatorIS2_EEE16__destroy_vectorC1ERS5_
FN:439,_ZNSt3__16vectorIN2sf6VertexENS_9allocatorIS2_EEE16__destroy_vectorC2ERS5_
FN:439,_ZNSt3__16vectorINS_4pairIffEENS_9allocatorIS2_EEE16__destroy_vectorC1ERS5_
FN:439,_ZNSt3__16vectorINS_4pairIffEENS_9allocatorIS2_EEE16__destroy_vectorC2ERS5_
FN:439,_ZNSt3__16vectorIfNS_9allocatorIfEEE16__destroy_vectorC1ERS3_
FN:439,_ZNSt3__16vectorIfNS_9allocatorIfEEE16__destroy_vectorC2ERS3_
FN:441,_ZNSt3__16vectorI6EntityNS_9allocatorIS1_EEE16__destroy_vectorclB7v160006Ev
FN:441,_ZNSt3__16vectorIN2sf6VertexENS_9allocatorIS2_EEE16__destroy_vectorclB7v160006Ev
FN:441,_ZNSt3__16vectorINS_4pairIffEENS_9allocatorIS2_EEE16__destroy_vectorclB7v160006Ev
FN:441,_ZNSt3__16vectorIfNS_9allocatorIfEEE16__destroy_vectorclB7v160006Ev
FN:456,_ZNSt3__16vectorI6EntityNS_9allocatorIS1_EEED1B7v160006Ev
FN:456,_ZNSt3__16vectorI6EntityNS_9allocatorIS1_EEED2B7v160006Ev
FN:456,_ZNSt3__16vectorIN2sf6VertexENS_9allocatorIS2_EEED1B7v160006Ev
FN:456,_ZNSt3__16vectorIN2sf6VertexENS_9allocatorIS2_EEED2B7v160006Ev
FN:456,_ZNSt3__16vectorINS_4pairIffEENS_9allocatorIS2_EEED1B7v160006Ev
FN:456,_ZNSt3__16vectorINS_4pairIffEENS_9allocatorIS2_EEED2B7v160006Ev
FN:456,_ZNSt3__16vectorIfNS_9allocatorIfEEED1B7v160006Ev
FN:456,_ZNSt3__16vectorIfNS_9allocatorIfEEED2B7v160006Ev
FN:545,_ZNKSt3__16vectorI6EntityNS_9allocatorIS1_EEE4sizeB7v160006Ev
FN:545,_ZNKSt3__16vectorIN2sf6VertexENS_9allocatorIS2_EEE4sizeB7v160006Ev
FN:545,_ZNKSt3__16vectorINS_4pairIffEENS_9allocatorIS2_EEE4sizeB7v160006Ev
FN:545,_ZNKSt3__16vectorIfNS_9allocatorIfEEE4sizeB7v160006Ev
FN:548,_ZNKSt3__16vectorI6EntityNS_9allocatorIS1_EEE8capacityB7v160006Ev
FN:548,_ZNKSt3__16vectorIN2sf6VertexENS_9allocatorIS2_EEE8capacityB7v160006Ev
FN:548,_ZNKSt3__16vectorINS_4pairIffEENS_9allocatorIS2_EEE8capacityB7v160006Ev
FN:548,_ZNKSt3__16vectorIfNS_9allocatorIfEEE8capacityB7v160006Ev
FN:572,_ZNSt3__16vectorI6EntityNS_9allocatorIS1_EEE4backB7v160006Ev
FN:588,_ZNKSt3__16vectorI6EntityNS_9allocatorIS1_EEE4dataB7v160006Ev
FN:588,_ZNKSt3__16vectorIN2sf6VertexENS_9allocatorIS2_EEE4dataB7v160006Ev
FN:588,_ZNKSt3__16vectorINS_4pairIffEENS_9allocatorIS2_EEE4dataB7v160006Ev
FN:588,_ZNKSt3__16vectorIfNS_9allocatorIfEEE4dataB7v160006Ev
FN:685,_ZNSt3__16vectorIN2sf6VertexENS_9allocatorIS2_EEE11__vallocateB7v160006Em
FN:685,_ZNSt3__16vectorINS_4pairIffEENS_9allocatorIS2_EEE11__vallocateB7v160006Em
FN:685,_ZNSt3__16vectorIfNS_9allocatorIfEEE11__vallocateB7v160006Em
FN:708,_ZNSt3__16vectorI6EntityNS_9allocatorIS1_EEE11__make_iterB7v160006EPS1_
FN:752,_ZNKSt3__16vectorI6EntityNS_9allocatorIS1_EEE31__annotate_contiguous_containerB7v160006EPKvS6_S6_S6_
FN:752,_ZNKSt3__16vectorIN2sf6VertexENS_9allocatorIS2_EEE31__annotate_contiguous_containerB7v160006EPKvS7_S7_S7_
FN:752,_ZNKSt3__16vectorINS_4pairIffEENS_9allocatorIS2_EEE31__annotate_contiguous_containerB7v160006EPKvS7_S7_S7_
FN:752,_ZNKSt3__16vectorIfNS_9allocatorIfEEE31__annotate_contiguous_containerB7v160006EPKvS5_S5_S5_
FN:756,_ZNKSt3__16vectorI6EntityNS_9allocatorIS1_EEE14__annotate_newB7v160006Em
FN:756,_ZNKSt3__16vectorIN2sf6VertexENS_9allocatorIS2_EEE14__annotate_newB7v160006Em
FN:756,_ZNKSt3__16vectorINS_4pairIffEENS_9allocatorIS2_EEE14__annotate_newB7v160006Em
FN:756,_ZNKSt3__16vectorIfNS_9allocatorIfEEE14__annotate_newB7v160006Em
FN:762,_ZNKSt3__16vectorI6EntityNS_9allocatorIS1_EEE17__annotate_deleteB7v160006Ev
FN:762,_ZNKSt3__16vectorIN2sf6VertexENS_9allocatorIS2_EEE17__annotate_deleteB7v160006Ev
FN:762,_ZNKSt3__16vectorINS_4pairIffEENS_9allocatorIS2_EEE17__annotate_deleteB7v160006Ev
FN:762,_ZNKSt3__16vectorIfNS_9allocatorIfEEE17__annotate_deleteB7v160006Ev
FN:783,_ZNSt3__16vectorI6EntityNS_9allocatorIS1_EEE21_ConstructTransactionC1B7v160006ERS4_m
FN:783,_ZNSt3__16vectorI6EntityNS_9allocatorIS1_EEE21_ConstructTransactionC2B7v160006ERS4_m
FN:783,_ZNSt3__16vectorIN2sf6VertexENS_9allocatorIS2_EEE21_ConstructTransactionC1B7v160006ERS5_m
FN:783,_ZNSt3__16vectorIN2sf6VertexENS_9allocatorIS2_EEE21_ConstructTransactionC2B7v160006ERS5_m
FN:783,_ZNSt3__16vectorINS_4pairIffEENS_9allocatorIS2_EEE21_ConstructTransactionC1B7v160006ERS5_m
FN:783,_ZNSt3__16vectorINS_4pairIffEENS_9allocatorIS2_EEE21_ConstructTransactionC2B7v160006ERS5_m
FN:783,_ZNSt3__16vectorIfNS_9allocatorIfEEE21_ConstructTransactionC1B7v160006ERS3_m
FN:783,_ZNSt3__16vectorIfNS_9allocatorIfEEE21_ConstructTransactionC2B7v160006ERS3_m
FN:789,_ZNSt3__16vectorI6EntityNS_9allocatorIS1_EEE21_ConstructTransactionD1B7v160006Ev
FN:789,_ZNSt3__16vectorI6EntityNS_9allocatorIS1_EEE21_ConstructTransactionD2B7v160006Ev
FN:789,_ZNSt3__16vectorIN2sf6VertexENS_9allocatorIS2_EEE21_ConstructTransactionD1B7v160006Ev
FN:789,_ZNSt3__16vectorIN2sf6VertexENS_9allocatorIS2_EEE21_ConstructTransactionD2B7v160006Ev
FN:789,_ZNSt3__16vectorINS_4pairIffEENS_9allocatorIS2_EEE21_ConstructTransactionD1B7v160006Ev
FN:789,_ZNSt3__16vectorINS_4pairIffEENS_9allocatorIS2_EEE21_ConstructTransactionD2B7v160006Ev
FN:789,_ZNSt3__16vectorIfNS_9allocatorIfEEE21_ConstructTransactionD1B7v160006Ev
FN:789,_ZNSt3__16vectorIfNS_9allocatorIfEEE21_ConstructTransactionD2B7v160006Ev
FN:809,_ZNSt3__16vectorI6EntityNS_9allocatorIS1_EEE22__construct_one_at_endB7v160006IJfRKN2sf5ColorEdbbEEEvDpOT_
FN:817,_ZNSt3__16vectorI6EntityNS_9allocatorIS1_EEE7__allocB7v160006Ev
FN:817,_ZNSt3__16vectorIN2sf6VertexENS_9allocatorIS2_EEE7__allocB7v160006Ev
FN:817,_ZNSt3__16vectorINS_4pairIffEENS_9allocatorIS2_EEE7__allocB7v160006Ev
FN:817,_ZNSt3__16vectorIfNS_9allocatorIfEEE7__allocB7v160006Ev
FN:820,_ZNKSt3__16vectorI6EntityNS_9allocatorIS1_EEE7__allocB7v160006Ev
FN:820,_ZNKSt3__16vectorIN2sf6VertexENS_9allocatorIS2_EEE7__allocB7v160006Ev
FN:820,_ZNKSt3__16vectorINS_4pairIffEENS_9allocatorIS2_EEE7__allocB7v160006Ev
FN:820,_ZNKSt3__16vectorIfNS_9allocatorIfEEE7__allocB7v160006Ev
FN:823,_ZNSt3__16vectorI6EntityNS_9allocatorIS1_EEE9__end_capB7v160006Ev
FN:823,_ZNSt3__16vectorIN2sf6VertexENS_9allocatorIS2_EEE9__end_capB7v160006Ev
FN:823,_ZNSt3__16vectorINS_4pairIffEENS_9allocatorIS2_EEE9__end_capB7v160006Ev
FN:823,_ZNSt3__16vectorIfNS_9allocatorIfEEE9__end_capB7v160006Ev
FN:826,_ZNKSt3__16vectorI6EntityNS_9allocatorIS1_EEE9__end_capB7v160006Ev
FN:826,_ZNKSt3__16vectorIN2sf6VertexENS_9allocatorIS2_EEE9__end_capB7v160006Ev
FN:826,_ZNKSt3__16vectorINS_4pairIffEENS_9allocatorIS2_EEE9__end_capB7v160006Ev
FN:826,_ZNKSt3__16vectorIfNS_9allocatorIfEEE9__end_capB7v160006Ev
FN:830,_ZNSt3__16vectorI6EntityNS_9allocatorIS1_EEE7__clearB7v160006Ev
FN:830,_ZNSt3__16vectorIN2sf6VertexENS_9allocatorIS2_EEE7__clearB7v160006Ev
FN:830,_ZNSt3__16vectorINS_4pairIffEENS_9allocatorIS2_EEE7__clearB7v160006Ev
FN:830,_ZNSt3__16vectorIfNS_9allocatorIfEEE7__clearB7v160006Ev
FN:833,_ZNSt3__16vectorI6EntityNS_9allocatorIS1_EEE22__base_destruct_at_endB7v160006EPS1_
FN:833,_ZNSt3__16vectorIN2sf6VertexENS_9allocatorIS2_EEE22__base_destruct_at_endB7v160006EPS2_
FN:833,_ZNSt3__16vectorINS_4pairIffEENS_9allocatorIS2_EEE22__base_destruct_at_endB7v160006EPS2_
FN:833,_ZNSt3__16vectorIfNS_9allocatorIfEEE22__base_destruct_at_endB7v160006EPf
FN:854,_ZNKSt3__16vectorI6EntityNS_9allocatorIS1_EEE20__throw_length_errorB7v160006Ev
FN:854,_ZNKSt3__16vectorIN2sf6VertexENS_9allocatorIS2_EEE20__throw_length_errorB7v160006Ev
FN:854,_ZNKSt3__16vectorINS_4pairIffEENS_9allocatorIS2_EEE20__throw_length_errorB7v160006Ev
FN:854,_ZNKSt3__16vectorIfNS_9allocatorIfEEE20__throw_length_errorB7v160006Ev
FN:913,_ZNSt3__16vectorI6EntityNS_9allocatorIS1_EEE26__swap_out_circular_bufferERNS_14__split_bufferIS1_RS3_EE
FN:965,_ZNKSt3__16vectorI6EntityNS_9allocatorIS1_EEE8max_sizeEv
FN:965,_ZNKSt3__16vectorIN2sf6VertexENS_9allocatorIS2_EEE8max_sizeEv
FN:965,_ZNKSt3__16vectorINS_4pairIffEENS_9allocatorIS2_EEE8max_sizeEv
FN:965,_ZNKSt3__16vectorIfNS_9allocatorIfEEE8max_sizeEv
FN:976,_ZNKSt3__16vectorI6EntityNS_9allocatorIS1_EEE11__recommendB7v160006Em
FNDA:7,_ZNSt3__16vectorIN2sf6VertexENS_9allocatorIS2_EEE18__construct_at_endIPS2_Li0EEEvT_S8_m
FNDA:1,_ZNSt3__16vectorINS_4pairIffEENS_9allocatorIS2_EEE18__construct_at_endIPKS2_Li0EEEvT_S9_m
FNDA:1,_ZNSt3__16vectorIfNS_9allocatorIfEEE18__construct_at_endIPKfLi0EEEvT_S7_m
FNDA:14,_ZNSt3__16vectorIN2sf6VertexENS_9allocatorIS2_EEEC1ERKS5_
FNDA:14,_ZNSt3__16vectorIN2sf6VertexENS_9allocatorIS2_EEEC2ERKS5_
FNDA:1,_ZNSt3__16vectorINS_4pairIffEENS_9allocatorIS2_EEEC1B7v160006ESt16initializer_listIS2_E
FNDA:1,_ZNSt3__16vectorINS_4pairIffEENS_9allocatorIS2_EEEC2B7v160006ESt16initializer_listIS2_E
FNDA:1,_ZNSt3__16vectorIfNS_9allocatorIfEEEC1B7v160006ESt16initializer_listIfE
FNDA:1,_ZNSt3__16vectorIfNS_9allocatorIfEEEC2B7v160006ESt16initializer_listIfE
FNDA:0,_ZNSt3__16vectorI6EntityNS_9allocatorIS1_EEE5beginB7v160006Ev
FNDA:0,_ZNSt3__16vectorI6EntityNS_9allocatorIS1_EEE3endB7v160006Ev
FNDA:0,_ZNSt3__16vectorI6EntityNS_9allocatorIS1_EEEixB7v160006Em
FNDA:5,_ZNSt3__16vectorINS_4pairIffEENS_9allocatorIS2_EEEixB7v160006Em
FNDA:3,_ZNSt3__16vectorIfNS_9allocatorIfEEEixB7v160006Em
FNDA:4,_ZNSt3__16vectorI6EntityNS_9allocatorIS1_EEE24__emplace_back_slow_pathIJfRKN2sf5ColorEdbbEEEvDpOT_
FNDA:6,_ZNSt3__16vectorI6EntityNS_9allocatorIS1_EEE12emplace_backIJfRKN2sf5ColorEdbbEEERS1_DpOT_
FNDA:1,_ZNSt3__16vectorI6EntityNS_9allocatorIS1_EEEC1B7v160006Ev
FNDA:1,_ZNSt3__16vectorI6EntityNS_9allocatorIS1_EEEC2B7v160006Ev
FNDA:1,_ZNSt3__16vectorI6EntityNS_9allocatorIS1_EEE16__destroy_vectorC1ERS4_
FNDA:1,_ZNSt3__16vectorI6EntityNS_9allocatorIS1_EEE16__destroy_vectorC2ERS4_
FNDA:15,_ZNSt3__16vectorIN2sf6VertexENS_9allocatorIS2_EEE16__destroy_vectorC1ERS5_
FNDA:15,_ZNSt3__16vectorIN2sf6VertexENS_9allocatorIS2_EEE16__destroy_vectorC2ERS5_
FNDA:2,_ZNSt3__16vectorINS_4pairIffEENS_9allocatorIS2_EEE16__destroy_vectorC1ERS5_
FNDA:2,_ZNSt3__16vectorINS_4pairIffEENS_9allocatorIS2_EEE16__destroy_vectorC2ERS5_
FNDA:2,_ZNSt3__16vectorIfNS_9allocatorIfEEE16__destroy_vectorC1ERS3_
FNDA:2,_ZNSt3__16vectorIfNS_9allocatorIfEEE16__destroy_vectorC2ERS3_
FNDA:1,_ZNSt3__16vectorI6EntityNS_9allocatorIS1_EEE16__destroy_vectorclB7v160006Ev
FNDA:1,_ZNSt3__16vectorIN2sf6VertexENS_9allocatorIS2_EEE16__destroy_vectorclB7v160006Ev
FNDA:1,_ZNSt3__16vectorINS_4pairIffEENS_9allocatorIS2_EEE16__destroy_vectorclB7v160006Ev
FNDA:1,_ZNSt3__16vectorIfNS_9allocatorIfEEE16__destroy_vectorclB7v160006Ev
FNDA:1,_ZNSt3__16vectorI6EntityNS_9allocatorIS1_EEED1B7v160006Ev
FNDA:1,_ZNSt3__16vectorI6EntityNS_9allocatorIS1_EEED2B7v160006Ev
FNDA:1,_ZNSt3__16vectorIN2sf6VertexENS_9allocatorIS2_EEED1B7v160006Ev
FNDA:1,_ZNSt3__16vectorIN2sf6VertexENS_9allocatorIS2_EEED2B7v160006Ev
FNDA:1,_ZNSt3__16vectorINS_4pairIffEENS_9allocatorIS2_EEED1B7v160006Ev
FNDA:1,_ZNSt3__16vectorINS_4pairIffEENS_9allocatorIS2_EEED2B7v160006Ev
FNDA:1,_ZNSt3__16vectorIfNS_9allocatorIfEEED1B7v160006Ev
FNDA:1,_ZNSt3__16vectorIfNS_9allocatorIfEEED2B7v160006Ev
FNDA:17,_ZNKSt3__16vectorI6EntityNS_9allocatorIS1_EEE4sizeB7v160006Ev
FNDA:15,_ZNKSt3__16vectorIN2sf6VertexENS_9allocatorIS2_EEE4sizeB7v160006Ev
FNDA:1,_ZNKSt3__16vectorINS_4pairIffEENS_9allocatorIS2_EEE4sizeB7v160006Ev
FNDA:4,_ZNKSt3__16vectorIfNS_9allocatorIfEEE4sizeB7v160006Ev
FNDA:23,_ZNKSt3__16vectorI6EntityNS_9allocatorIS1_EEE8capacityB7v160006Ev
FNDA:17,_ZNKSt3__16vectorIN2sf6VertexENS_9allocatorIS2_EEE8capacityB7v160006Ev
FNDA:5,_ZNKSt3__16vectorINS_4pairIffEENS_9allocatorIS2_EEE8capacityB7v160006Ev
FNDA:5,_ZNKSt3__16vectorIfNS_9allocatorIfEEE8capacityB7v160006Ev
FNDA:12,_ZNSt3__16vectorI6EntityNS_9allocatorIS1_EEE4backB7v160006Ev
FNDA:36,_ZNKSt3__16vectorI6EntityNS_9allocatorIS1_EEE4dataB7v160006Ev
FNDA:32,_ZNKSt3__16vectorIN2sf6VertexENS_9allocatorIS2_EEE4dataB7v160006Ev
FNDA:8,_ZNKSt3__16vectorINS_4pairIffEENS_9allocatorIS2_EEE4dataB7v160006Ev
FNDA:8,_ZNKSt3__16vectorIfNS_9allocatorIfEEE4dataB7v160006Ev
FNDA:7,_ZNSt3__16vectorIN2sf6VertexENS_9allocatorIS2_EEE11__vallocateB7v160006Em
FNDA:1,_ZNSt3__16vectorINS_4pairIffEENS_9allocatorIS2_EEE11__vallocateB7v160006Em
FNDA:1,_ZNSt3__16vectorIfNS_9allocatorIfEEE11__vallocateB7v160006Em
FNDA:0,_ZNSt3__16vectorI6EntityNS_9allocatorIS1_EEE11__make_iterB7v160006EPS1_
FNDA:9,_ZNKSt3__16vectorI6EntityNS_9allocatorIS1_EEE31__annotate_contiguous_containerB7v160006EPKvS6_S6_S6_
FNDA:8,_ZNKSt3__16vectorIN2sf6VertexENS_9allocatorIS2_EEE31__annotate_contiguous_containerB7v160006EPKvS7_S7_S7_
FNDA:2,_ZNKSt3__16vectorINS_4pairIffEENS_9allocatorIS2_EEE31__annotate_contiguous_containerB7v160006EPKvS7_S7_S7_
FNDA:2,_ZNKSt3__16vectorIfNS_9allocatorIfEEE31__annotate_contiguous_containerB7v160006EPKvS5_S5_S5_
FNDA:4,_ZNKSt3__16vectorI6EntityNS_9allocatorIS1_EEE14__annotate_newB7v160006Em
FNDA:7,_ZNKSt3__16vectorIN2sf6VertexENS_9allocatorIS2_EEE14__annotate_newB7v160006Em
FNDA:1,_ZNKSt3__16vectorINS_4pairIffEENS_9allocatorIS2_EEE14__annotate_newB7v160006Em
FNDA:1,_ZNKSt3__16vectorIfNS_9allocatorIfEEE14__annotate_newB7v160006Em
FNDA:5,_ZNKSt3__16vectorI6EntityNS_9allocatorIS1_EEE17__annotate_deleteB7v160006Ev
FNDA:1,_ZNKSt3__16vectorIN2sf6VertexENS_9allocatorIS2_EEE17__annotate_deleteB7v160006Ev
FNDA:1,_ZNKSt3__16vectorINS_4pairIffEENS_9allocatorIS2_EEE17__annotate_deleteB7v160006Ev
FNDA:1,_ZNKSt3__16vectorIfNS_9allocatorIfEEE17__annotate_deleteB7v160006Ev
FNDA:2,_ZNSt3__16vectorI6EntityNS_9allocatorIS1_EEE21_ConstructTransactionC1B7v160006ERS4_m
FNDA:2,_ZNSt3__16vectorI6EntityNS_9allocatorIS1_EEE21_ConstructTransactionC2B7v160006ERS4_m
FNDA:7,_ZNSt3__16vectorIN2sf6VertexENS_9allocatorIS2_EEE21_ConstructTransactionC1B7v160006ERS5_m
FNDA:7,_ZNSt3__16vectorIN2sf6VertexENS_9allocatorIS2_EEE21_ConstructTransactionC2B7v160006ERS5_m
FNDA:1,_ZNSt3__16vectorINS_4pairIffEENS_9allocatorIS2_EEE21_ConstructTransactionC1B7v160006ERS5_m
FNDA:1,_ZNSt3__16vectorINS_4pairIffEENS_9allocatorIS2_EEE21_ConstructTransactionC2B7v160006ERS5_m
FNDA:1,_ZNSt3__16vectorIfNS_9allocatorIfEEE21_ConstructTransactionC1B7v160006ERS3_m
FNDA:1,_ZNSt3__16vectorIfNS_9allocatorIfEEE21_ConstructTransactionC2B7v160006ERS3_m
FNDA:2,_ZNSt3__16vectorI6EntityNS_9allocatorIS1_EEE21_ConstructTransactionD1B7v160006Ev
FNDA:2,_ZNSt3__16vectorI6EntityNS_9allocatorIS1_EEE21_ConstructTransactionD2B7v160006Ev
FNDA:7,_ZNSt3__16vectorIN2sf6VertexENS_9allocatorIS2_EEE21_ConstructTransactionD1B7v160006Ev
FNDA:7,_ZNSt3__16vectorIN2sf6VertexENS_9allocatorIS2_EEE21_ConstructTransactionD2B7v160006Ev
FNDA:1,_ZNSt3__16vectorINS_4pairIffEENS_9allocatorIS2_EEE21_ConstructTransactionD1B7v160006Ev
FNDA:1,_ZNSt3__16vectorINS_4pairIffEENS_9allocatorIS2_EEE21_ConstructTransactionD2B7v160006Ev
FNDA:1,_ZNSt3__16vectorIfNS_9allocatorIfEEE21_ConstructTransactionD1B7v160006Ev
FNDA:1,_ZNSt3__16vectorIfNS_9allocatorIfEEE21_ConstructTransactionD2B7v160006Ev
FNDA:2,_ZNSt3__16vectorI6EntityNS_9allocatorIS1_EEE22__construct_one_at_endB7v160006IJfRKN2sf5ColorEdbbEEEvDpOT_
FNDA:17,_ZNSt3__16vectorI6EntityNS_9allocatorIS1_EEE7__allocB7v160006Ev
FNDA:75,_ZNSt3__16vectorIN2sf6VertexENS_9allocatorIS2_EEE7__allocB7v160006Ev
FNDA:6,_ZNSt3__16vectorINS_4pairIffEENS_9allocatorIS2_EEE7__allocB7v160006Ev
FNDA:6,_ZNSt3__16vectorIfNS_9allocatorIfEEE7__allocB7v160006Ev
FNDA:4,_ZNKSt3__16vectorI6EntityNS_9allocatorIS1_EEE7__allocB7v160006Ev
FNDA:21,_ZNKSt3__16vectorIN2sf6VertexENS_9allocatorIS2_EEE7__allocB7v160006Ev
FNDA:1,_ZNKSt3__16vectorINS_4pairIffEENS_9allocatorIS2_EEE7__allocB7v160006Ev
FNDA:1,_ZNKSt3__16vectorIfNS_9allocatorIfEEE7__allocB7v160006Ev
FNDA:10,_ZNSt3__16vectorI6EntityNS_9allocatorIS1_EEE9__end_capB7v160006Ev
FNDA:7,_ZNSt3__16vectorIN2sf6VertexENS_9allocatorIS2_EEE9__end_capB7v160006Ev
FNDA:1,_ZNSt3__16vectorINS_4pairIffEENS_9allocatorIS2_EEE9__end_capB7v160006Ev
FNDA:1,_ZNSt3__16vectorIfNS_9allocatorIfEEE9__end_capB7v160006Ev
FNDA:23,_ZNKSt3__16vectorI6EntityNS_9allocatorIS1_EEE9__end_capB7v160006Ev
FNDA:17,_ZNKSt3__16vectorIN2sf6VertexENS_9allocatorIS2_EEE9__end_capB7v160006Ev
FNDA:5,_ZNKSt3__16vectorINS_4pairIffEENS_9allocatorIS2_EEE9__end_capB7v160006Ev
FNDA:5,_ZNKSt3__16vectorIfNS_9allocatorIfEEE9__end_capB7v160006Ev
FNDA:1,_ZNSt3__16vectorI6EntityNS_9allocatorIS1_EEE7__clearB7v160006Ev
FNDA:1,_ZNSt3__16vectorIN2sf6VertexENS_9allocatorIS2_EEE7__clearB7v160006Ev
FNDA:1,_ZNSt3__16vectorINS_4pairIffEENS_9allocatorIS2_EEE7__clearB7v160006Ev
FNDA:1,_ZNSt3__16vectorIfNS_9allocatorIfEEE7__clearB7v160006Ev
FNDA:1,_ZNSt3__16vectorI6EntityNS_9allocatorIS1_EEE22__base_destruct_at_endB7v160006EPS1_
FNDA:1,_ZNSt3__16vectorIN2sf6VertexENS_9allocatorIS2_EEE22__base_destruct_at_endB7v160006EPS2_
FNDA:1,_ZNSt3__16vectorINS_4pairIffEENS_9allocatorIS2_EEE22__base_destruct_at_endB7v160006EPS2_
FNDA:1,_ZNSt3__16vectorIfNS_9allocatorIfEEE22__base_destruct_at_endB7v160006EPf
FNDA:0,_ZNKSt3__16vectorI6EntityNS_9allocatorIS1_EEE20__throw_length_errorB7v160006Ev
FNDA:0,_ZNKSt3__16vectorIN2sf6VertexENS_9allocatorIS2_EEE20__throw_length_errorB7v160006Ev
FNDA:0,_ZNKSt3__16vectorINS_4pairIffEENS_9allocatorIS2_EEE20__throw_length_errorB7v160006Ev
FNDA:0,_ZNKSt3__16vectorIfNS_9allocatorIfEEE20__throw_length_errorB7v160006Ev
FNDA:4,_ZNSt3__16vectorI6EntityNS_9allocatorIS1_EEE26__swap_out_circular_bufferERNS_14__split_bufferIS1_RS3_EE
FNDA:4,_ZNKSt3__16vectorI6EntityNS_9allocatorIS1_EEE8max_sizeEv
FNDA:7,_ZNKSt3__16vectorIN2sf6VertexENS_9allocatorIS2_EEE8max_sizeEv
FNDA:1,_ZNKSt3__16vectorINS_4pairIffEENS_9allocatorIS2_EEE8max_sizeEv
FNDA:1,_ZNKSt3__16vectorIfNS_9allocatorIfEEE8max_sizeEv
FNDA:4,_ZNKSt3__16vectorI6EntityNS_9allocatorIS1_EEE11__recommendB7v160006Em
FNF:118
FNH:110
DA:377,2
DA:378,1
DA:379,1
DA:380,2
DA:439,40
DA:441,4
DA:442,4
DA:443,4
DA:445,4
DA:446,4
DA:447,4
DA:448,4
DA:449,4
DA:456,8
DA:545,37
DA:546,37
DA:548,50
DA:549,50
DA:572,12
DA:575,12
DA:588,84
DA:589,84
DA:671,17
DA:672,17
DA:673,3
DA:674,3
DA:685,9
DA:686,9
DA:687,0
DA:688,9
DA:689,9
DA:690,9
DA:691,9
DA:692,9
DA:693,9
DA:708,0
DA:752,21
DA:753,21
DA:756,13
DA:757,26
DA:758,13
DA:759,13
DA:762,8
DA:763,16
DA:764,8
DA:765,8
DA:783,22
DA:784,22
DA:788,22
DA:789,22
DA:790,11
DA:796,22
DA:809,2
DA:810,2
DA:811,4
DA:812,2
DA:813,2
DA:814,2
DA:817,104
DA:818,104
DA:820,27
DA:821,27
DA:823,19
DA:824,19
DA:826,50
DA:827,50
DA:830,4
DA:833,4
DA:834,4
DA:835,76
DA:836,72
DA:837,4
DA:838,4
DA:854,0
DA:855,0
DA:913,4
DA:915,4
DA:917,8
DA:918,4
DA:919,4
DA:920,4
DA:921,4
DA:922,4
DA:923,4
DA:924,4
DA:925,4
DA:926,4
DA:965,13
DA:967,26
DA:968,13
DA:976,4
DA:978,4
DA:979,4
DA:980,0
DA:981,4
DA:982,4
DA:983,0
DA:984,4
DA:985,4
DA:1026,9
DA:1028,9
DA:1029,9
DA:1030,9
DA:1185,28
DA:1186,14
DA:1187,14
DA:1188,14
DA:1189,14
DA:1190,14
DA:1191,14
DA:1193,7
DA:1194,7
DA:1195,7
DA:1196,14
DA:1197,28
DA:1263,4
DA:1264,2
DA:1265,2
DA:1266,2
DA:1267,2
DA:1269,2
DA:1270,2
DA:1271,2
DA:1272,2
DA:1273,4
DA:1421,0
DA:1423,0
DA:1439,0
DA:1441,0
DA:1457,8
DA:1460,8
DA:1577,4
DA:1579,4
DA:1580,4
DA:1582,4
DA:1583,4
DA:1584,4
DA:1585,4
DA:1596,6
DA:1598,6
DA:1600,2
DA:1601,2
DA:1603,4
DA:1605,6
LF:144
LH:134
end_of_record
TN:
SF:/Users/jubair/CLionProjects/untitled/include/Entity.h
FN:44,_ZN6EntityC1ERKS_
FN:44,_ZN6EntityC2ERKS_
FN:44,_ZN6EntityD1Ev
FN:44,_ZN6EntityD2Ev
FN:97,_ZN6Entity16degreesToRadiansEf
FNDA:7,_ZN6EntityC1ERKS_
FNDA:7,_ZN6EntityC2ERKS_
FNDA:23,_ZN6EntityD1Ev
FNDA:23,_ZN6EntityD2Ev
FNDA:10,_ZN6Entity16degreesToRadiansEf
FNF:5
FNH:5
DA:97,10
DA:98,10
LF:2
LH:2
end_of_record
TN:
SF:/Users/jubair/CLionProjects/untitled/include/Game.h
FN:46,_ZN4GameD1Ev
FN:46,_ZN4GameD2Ev
FNDA:1,_ZN4GameD1Ev
FNDA:1,_ZN4GameD2Ev
FNF:2
FNH:2
LF:0
LH:0
end_of_record
TN:
SF:/Users/jubair/CLionProjects/untitled/src/Entity.cpp
FN:0,__cxx_global_var_init
FN:0,__cxx_global_var_init.1
FN:24,_ZN6EntityC1EfN2sf5ColorEdbb
FN:24,_ZN6EntityC2EfN2sf5ColorEdbb
FN:34,_ZN6Entity10applyForceEff
FN:52,_ZN6Entity6updateEfRN5boost7numeric6odeint12runge_kutta4INSt3__15arrayIdLm4EEEdS6_dNS2_13array_algebraENS2_18default_operationsENS2_17initially_resizerEEE
FN:63,_ZN6Entity13resetPositionEff
FN:73,_ZN6Entity16transferMomentumERS_
FNDA:2,__cxx_global_var_init
FNDA:2,__cxx_global_var_init.1
FNDA:16,_ZN6EntityC1EfN2sf5ColorEdbb
FNDA:16,_ZN6EntityC2EfN2sf5ColorEdbb
FNDA:6,_ZN6Entity10applyForceEff
FNDA:1,_ZN6Entity6updateEfRN5boost7numeric6odeint12runge_kutta4INSt3__15arrayIdLm4EEEdS6_dNS2_13array_algebraENS2_18default_operationsENS2_17initially_resizerEEE
FNDA:11,_ZN6Entity13resetPositionEff
FNDA:1,_ZN6Entity16transferMomentumERS_
FNF:8
FNH:8
DA:24,48
DA:25,32
DA:26,16
DA:27,16
DA:28,16
DA:29,32
DA:34,6
DA:36,6
DA:37,6
DA:40,6
DA:41,6
DA:43,6
DA:46,6
DA:47,6
DA:52,1
DA:53,1
DA:55,1
DA:57,1
DA:58,1
DA:59,1
DA:63,11
DA:64,11
DA:65,11
DA:66,11
DA:67,11
DA:68,11
DA:69,2
DA:70,2
DA:73,1
DA:75,1
DA:76,1
DA:77,1
DA:79,1
DA:80,1
DA:82,1
DA:83,17
DA:86,1
DA:87,1
DA:88,1
DA:89,1
DA:92,1
DA:93,1
DA:94,1
DA:95,1
DA:96,1
LF:45
LH:45
end_of_record
TN:
SF:/Users/jubair/CLionProjects/untitled/src/Game.cpp
FN:0,__cxx_global_var_init
FN:0,__cxx_global_var_init.1
FN:141,_ZN4Game13isOutOfWindowERK6Entity
FN:147,_ZN4Game17resetBirdPositionEv
FN:154,_ZN4Game18simulateTrajectoryEff
FN:177,_ZN4Game14checkCollisionERK6EntityS2_
FN:186,_ZN4Game17updateLaunchArrowEff
FN:194,_ZN4Game6renderEv
FN:210,_ZN4Game15printVelocitiesERKNSt3__112basic_stringIcNS0_11char_traitsIcEENS0_9allocatorIcEEEERK6EntitySB_
FN:23,_ZN4GameC1Ev
FN:23,_ZN4GameC2Ev
FN:34,_ZN4Game9resetGameEv
FN:53,_ZN4Game3runEv
FN:68,_ZN4Game14handleKeyPressEN2sf8Keyboard3KeyE
FN:98,_ZN4Game6updateEv
FNDA:2,__cxx_global_var_init
FNDA:2,__cxx_global_var_init.1
FNDA:0,_ZN4Game13isOutOfWindowERK6Entity
FNDA:0,_ZN4Game17resetBirdPositionEv
FNDA:2,_ZN4Game18simulateTrajectoryEff
FNDA:2,_ZN4Game14checkCollisionERK6EntityS2_
FNDA:2,_ZN4Game17updateLaunchArrowEff
FNDA:0,_ZN4Game6renderEv
FNDA:0,_ZN4Game15printVelocitiesERKNSt3__112basic_stringIcNS0_11char_traitsIcEENS0_9allocatorIcEEEERK6EntitySB_
FNDA:1,_ZN4GameC1Ev
FNDA:1,_ZN4GameC2Ev
FNDA:2,_ZN4Game9resetGameEv
FNDA:0,_ZN4Game3runEv
FNDA:0,_ZN4Game14handleKeyPressEN2sf8Keyboard3KeyE
FNDA:0,_ZN4Game6updateEv
FNF:15
FNH:8
DA:23,2
DA:25,2
DA:26,1
DA:27,1
DA:28,1
DA:29,1
DA:30,1
DA:31,2
DA:34,2
DA:35,2
DA:36,2
DA:37,2
DA:39,2
DA:40,2
DA:42,2
DA:43,2
DA:45,2
DA:46,2
DA:47,2
DA:48,2
DA:49,2
DA:50,2
DA:51,2
DA:53,0
DA:54,0
DA:55,0
DA:56,0
DA:57,0
DA:58,0
DA:59,0
DA:60,0
DA:62,0
DA:63,0
DA:65,0
DA:68,0
DA:69,2
DA:70,2
DA:71,0
DA:73,0
DA:74,0
DA:75,0
DA:76,0
DA:77,0
DA:78,0
DA:79,0
DA:80,0
DA:81,0
DA:82,0
DA:83,0
DA:84,0
DA:85,0
DA:86,0
DA:87,0
DA:88,0
DA:89,0
DA:90,0
DA:91,0
DA:93,0
DA:94,0
DA:95,0
DA:98,0
DA:99,0
DA:100,0
DA:103,0
DA:104,0
DA:105,0
DA:109,0
DA:110,0
DA:111,0
DA:112,0
DA:113,0
DA:115,0
DA:116,0
DA:117,0
DA:121,0
DA:122,0
DA:123,0
DA:124,0
DA:125,0
DA:126,0
DA:128,0
DA:129,0
DA:130,0
DA:131,0
DA:132,0
DA:133,1
DA:134,1
DA:135,0
DA:136,0
DA:137,0
DA:138,0
DA:139,0
DA:141,0
DA:143,0
DA:144,0
DA:147,0
DA:149,0
DA:150,0
DA:151,0
DA:154,2
DA:155,2
DA:156,2
DA:157,2
DA:158,2
DA:159,2
DA:162,122
DA:163,120
DA:166,120
DA:169,240
DA:170,120
DA:171,0
DA:173,120
DA:174,2
DA:177,2
DA:178,2
DA:179,2
DA:180,2
DA:182,2
DA:186,2
DA:187,2
DA:189,2
DA:190,2
DA:191,2
DA:192,2
DA:194,0
DA:195,0
DA:197,0
DA:198,0
DA:199,0
DA:200,0
DA:201,0
DA:203,0
DA:204,0
DA:206,0
DA:207,0
DA:210,0
DA:211,0
DA:212,0
DA:213,0
DA:214,0
LF:140
LH:51
end_of_record
TN:
SF:/Users/jubair/CLionProjects/untitled/src/Physics.cpp
FN:0,__cxx_global_var_init
FN:0,__cxx_global_var_init.1
FN:12,_Z16projectileSystemRKNSt3__15arrayIdLm4EEERS1_d
FNDA:2,__cxx_global_var_init
FNDA:2,__cxx_global_var_init.1
FNDA:484,_Z16projectileSystemRKNSt3__15arrayIdLm4EEERS1_d
FNF:3
FNH:3
DA:12,484
DA:13,484
DA:14,484
DA:15,484
DA:16,484
DA:17,484
DA:69,2
DA:70,2
LF:8
LH:8
end_of_record
TN:
SF:/Users/jubair/CLionProjects/untitled/test/catch.hh
FN:2566,2567,_ZN5Catch6Detail9stringifyINS_6ApproxEEENSt3__112basic_stringIcNS3_11char_traitsIcEENS3_9allocatorIcEEEERKT_
FN:2566,2567,_ZN5Catch6Detail9stringifyIbEENSt3__112basic_stringIcNS2_11char_traitsIcEENS2_9allocatorIcEEEERKT_
FN:2566,2567,_ZN5Catch6Detail9stringifyIdEENSt3__112basic_stringIcNS2_11char_traitsIcEENS2_9allocatorIcEEEERKT_
FN:2566,2567,_ZN5Catch6Detail9stringifyIfEENSt3__112basic_stringIcNS2_11char_traitsIcEENS2_9allocatorIcEEEERKT_
FN:2687,2689,_ZN5Catch11StringMakerIbvE7convertEb
FN:3121,3122,_ZN5Catch6ApproxC1IfvEERKT_
FN:3121,3122,_ZN5Catch6ApproxC1IivEERKT_
FN:3126,3128,_ZN5CatcheqIdvEEbRKT_RKNS_6ApproxE
FN:3126,3128,_ZN5CatcheqIfvEEbRKT_RKNS_6ApproxE
FN:3167,3170,_ZN5Catch6Approx7epsilonIdvEERS0_RKT_
FN:3226,3229,_ZN5Catch14SourceLineInfoC1EPKcm
FN:3226,3229,_ZN5Catch14SourceLineInfoC2EPKcm
FN:5287,5290,_ZN5Catch20ITransientExpressionC2Ebb
FN:5298,5298,_ZN5Catch20ITransientExpressionD2Ev
FN:5309,_ZN5Catch10BinaryExprIbbED0Ev
FN:5309,_ZN5Catch10BinaryExprIbbED1Ev
FN:5309,_ZN5Catch10BinaryExprIbbED2Ev
FN:5309,_ZN5Catch10BinaryExprIdRNS_6ApproxEED0Ev
FN:5309,_ZN5Catch10BinaryExprIdRNS_6ApproxEED1Ev
FN:5309,_ZN5Catch10BinaryExprIdRNS_6ApproxEED2Ev
FN:5309,_ZN5Catch10BinaryExprIdfED0Ev
FN:5309,_ZN5Catch10BinaryExprIdfED1Ev
FN:5309,_ZN5Catch10BinaryExprIdfED2Ev
FN:5309,_ZN5Catch10BinaryExprIfRNS_6ApproxEED0Ev
FN:5309,_ZN5Catch10BinaryExprIfRNS_6ApproxEED1Ev
FN:5309,_ZN5Catch10BinaryExprIfRNS_6ApproxEED2Ev
FN:5314,5317,_ZNK5Catch10BinaryExprIbbE29streamReconstructedExpressionERNSt3__113basic_ostreamIcNS2_11char_traitsIcEEEE
FN:5314,5317,_ZNK5Catch10BinaryExprIdRNS_6ApproxEE29streamReconstructedExpressionERNSt3__113basic_ostreamIcNS4_11char_traitsIcEEEE
FN:5314,5317,_ZNK5Catch10BinaryExprIdfE29streamReconstructedExpressionERNSt3__113basic_ostreamIcNS2_11char_traitsIcEEEE
FN:5314,5317,_ZNK5Catch10BinaryExprIfRNS_6ApproxEE29streamReconstructedExpressionERNSt3__113basic_ostreamIcNS4_11char_traitsIcEEEE
FN:5320,5325,_ZN5Catch10BinaryExprIbbEC1EbbNS_9StringRefEb
FN:5320,5325,_ZN5Catch10BinaryExprIbbEC2EbbNS_9StringRefEb
FN:5320,5325,_ZN5Catch10BinaryExprIdRNS_6ApproxEEC1EbdNS_9StringRefES2_
FN:5320,5325,_ZN5Catch10BinaryExprIdRNS_6ApproxEEC2EbdNS_9StringRefES2_
FN:5320,5325,_ZN5Catch10BinaryExprIdfEC1EbdNS_9StringRefEf
FN:5320,5325,_ZN5Catch10BinaryExprIdfEC2EbdNS_9StringRefEf
FN:5320,5325,_ZN5Catch10BinaryExprIfRNS_6ApproxEEC1EbfNS_9StringRefES2_
FN:5320,5325,_ZN5Catch10BinaryExprIfRNS_6ApproxEEC2EbfNS_9StringRefES2_
FN:5385,_ZN5Catch9UnaryExprIbED0Ev
FN:5385,_ZN5Catch9UnaryExprIbED1Ev
FN:5385,_ZN5Catch9UnaryExprIbED2Ev
FN:5388,5390,_ZNK5Catch9UnaryExprIbE29streamReconstructedExpressionERNSt3__113basic_ostreamIcNS2_11char_traitsIcEEEE
FN:5393,5396,_ZN5Catch9UnaryExprIbEC1Eb
FN:5393,5396,_ZN5Catch9UnaryExprIbEC2Eb
FN:5404,5404,_ZN5Catch7ExprLhsIbEC1Eb
FN:5404,5404,_ZN5Catch7ExprLhsIbEC2Eb
FN:5404,5404,_ZN5Catch7ExprLhsIdEC1Ed
FN:5404,5404,_ZN5Catch7ExprLhsIdEC2Ed
FN:5404,5404,_ZN5Catch7ExprLhsIfEC1Ef
FN:5404,5404,_ZN5Catch7ExprLhsIfEC2Ef
FN:5454,5454,_ZN5CatcheqIRNS_6ApproxEEENSt3__19enable_ifIXsr6Detail11conjunctionINS_6Detail16is_eq_comparableIdT_vEENS3_8negationINS_16capture_by_valueIu20__remove_reference_tIS7_EEEEEEE5valueENS_10BinaryExprIdRKS7_EEE4typeEONS_7ExprLhsIdEEOS7_
FN:5454,5454,_ZN5CatcheqIRNS_6ApproxEEENSt3__19enable_ifIXsr6Detail11conjunctionINS_6Detail16is_eq_comparableIfT_vEENS3_8negationINS_16capture_by_valueIu20__remove_reference_tIS7_EEEEEEE5valueENS_10BinaryExprIfRKS7_EEE4typeEONS_7ExprLhsIfEEOS7_
FN:5454,5454,_ZN5CatcheqIbEENSt3__19enable_ifIXsr6Detail11conjunctionINS_6Detail16is_eq_comparableIbT_vEENS_16capture_by_valueIS5_EEEE5valueENS_10BinaryExprIbS5_EEE4typeEONS_7ExprLhsIbEES5_
FN:5504,5504,_ZN5CatchltIfEENSt3__19enable_ifIXsr6Detail11conjunctionINS_6Detail16is_lt_comparableIdT_vEENS_16capture_by_valueIS5_EEEE5valueENS_10BinaryExprIdS5_EEE4typeEONS_7ExprLhsIdEES5_
FN:5549,5550,_ZNK5Catch7ExprLhsIbE13makeUnaryExprEv
FN:5565,5566,_ZN5CatchleIbLi0EEENS_7ExprLhsIT_EEONS_10DecomposerES2_
FN:5565,5566,_ZN5CatchleIdLi0EEENS_7ExprLhsIT_EEONS_10DecomposerES2_
FN:5565,5566,_ZN5CatchleIfLi0EEENS_7ExprLhsIT_EEONS_10DecomposerES2_
FN:5605,5609,_ZN5Catch16AssertionHandlerD1Ev
FN:5605,5609,_ZN5Catch16AssertionHandlerD2Ev
FN:5613,5615,_ZN5Catch16AssertionHandler10handleExprIbEEvRKNS_7ExprLhsIT_EE
FN:6000,6002,_ZN5Catch11NameAndTagsC1ENS_9StringRefES1_
FN:6000,6002,_ZN5Catch11NameAndTagsC2ENS_9StringRefES1_
FN:702,702,_ZN5Catch9StringRefC1Ev
FN:702,702,_ZN5Catch9StringRefC2Ev
FN:706,709,_ZN5Catch9StringRefC1EPKcm
FN:706,709,_ZN5Catch9StringRefC2EPKcm
FN:779,780,_ZN5Catchli3_srEPKcm
FN:784,785,_Zli9_catch_srPKcm
FN:893,895,_ZN5Catch6Detail10unique_ptrINS_12ITestInvokerEED1Ev
FN:893,895,_ZN5Catch6Detail10unique_ptrINS_12ITestInvokerEED2Ev
FNDA:1,_ZN5Catch6Detail9stringifyINS_6ApproxEEENSt3__112basic_stringIcNS3_11char_traitsIcEENS3_9allocatorIcEEEERKT_
FNDA:0,_ZN5Catch6Detail9stringifyIbEENSt3__112basic_stringIcNS2_11char_traitsIcEENS2_9allocatorIcEEEERKT_
FNDA:2,_ZN5Catch6Detail9stringifyIdEENSt3__112basic_stringIcNS2_11char_traitsIcEENS2_9allocatorIcEEEERKT_
FNDA:0,_ZN5Catch6Detail9stringifyIfEENSt3__112basic_stringIcNS2_11char_traitsIcEENS2_9allocatorIcEEEERKT_
FNDA:0,_ZN5Catch11StringMakerIbvE7convertEb
FNDA:7,_ZN5Catch6ApproxC1IfvEERKT_
FNDA:4,_ZN5Catch6ApproxC1IivEERKT_
FNDA:11,_ZN5CatcheqIdvEEbRKT_RKNS_6ApproxE
FNDA:4,_ZN5CatcheqIfvEEbRKT_RKNS_6ApproxE
FNDA:15,_ZN5Catch6Approx7epsilonIdvEERS0_RKT_
FNDA:45,_ZN5Catch14SourceLineInfoC1EPKcm
FNDA:45,_ZN5Catch14SourceLineInfoC2EPKcm
FNDA:20,_ZN5Catch20ITransientExpressionC2Ebb
FNDA:20,_ZN5Catch20ITransientExpressionD2Ev
FNDA:0,_ZN5Catch10BinaryExprIbbED0Ev
FNDA:2,_ZN5Catch10BinaryExprIbbED1Ev
FNDA:2,_ZN5Catch10BinaryExprIbbED2Ev
FNDA:0,_ZN5Catch10BinaryExprIdRNS_6ApproxEED0Ev
FNDA:11,_ZN5Catch10BinaryExprIdRNS_6ApproxEED1Ev
FNDA:11,_ZN5Catch10BinaryExprIdRNS_6ApproxEED2Ev
FNDA:0,_ZN5Catch10BinaryExprIdfED0Ev
FNDA:1,_ZN5Catch10BinaryExprIdfED1Ev
FNDA:1,_ZN5Catch10BinaryExprIdfED2Ev
FNDA:0,_ZN5Catch10BinaryExprIfRNS_6ApproxEED0Ev
FNDA:4,_ZN5Catch10BinaryExprIfRNS_6ApproxEED1Ev
FNDA:4,_ZN5Catch10BinaryExprIfRNS_6ApproxEED2Ev
FNDA:0,_ZNK5Catch10BinaryExprIbbE29streamReconstructedExpressionERNSt3__113basic_ostreamIcNS2_11char_traitsIcEEEE
FNDA:1,_ZNK5Catch10BinaryExprIdRNS_6ApproxEE29streamReconstructedExpressionERNSt3__113basic_ostreamIcNS4_11char_traitsIcEEEE
FNDA:0,_ZNK5Catch10BinaryExprIdfE29streamReconstructedExpressionERNSt3__113basic_ostreamIcNS2_11char_traitsIcEEEE
FNDA:0,_ZNK5Catch10BinaryExprIfRNS_6ApproxEE29streamReconstructedExpressionERNSt3__113basic_ostreamIcNS4_11char_traitsIcEEEE
FNDA:2,_ZN5Catch10BinaryExprIbbEC1EbbNS_9StringRefEb
FNDA:2,_ZN5Catch10BinaryExprIbbEC2EbbNS_9StringRefEb
FNDA:11,_ZN5Catch10BinaryExprIdRNS_6ApproxEEC1EbdNS_9StringRefES2_
FNDA:11,_ZN5Catch10BinaryExprIdRNS_6ApproxEEC2EbdNS_9StringRefES2_
FNDA:1,_ZN5Catch10BinaryExprIdfEC1EbdNS_9StringRefEf
FNDA:1,_ZN5Catch10BinaryExprIdfEC2EbdNS_9StringRefEf
FNDA:4,_ZN5Catch10BinaryExprIfRNS_6ApproxEEC1EbfNS_9StringRefES2_
FNDA:4,_ZN5Catch10BinaryExprIfRNS_6ApproxEEC2EbfNS_9StringRefES2_
FNDA:0,_ZN5Catch9UnaryExprIbED0Ev
FNDA:2,_ZN5Catch9UnaryExprIbED1Ev
FNDA:2,_ZN5Catch9UnaryExprIbED2Ev
FNDA:0,_ZNK5Catch9UnaryExprIbE29streamReconstructedExpressionERNSt3__113basic_ostreamIcNS2_11char_traitsIcEEEE
FNDA:2,_ZN5Catch9UnaryExprIbEC1Eb
FNDA:2,_ZN5Catch9UnaryExprIbEC2Eb
FNDA:4,_ZN5Catch7ExprLhsIbEC1Eb
FNDA:4,_ZN5Catch7ExprLhsIbEC2Eb
FNDA:12,_ZN5Catch7ExprLhsIdEC1Ed
FNDA:12,_ZN5Catch7ExprLhsIdEC2Ed
FNDA:4,_ZN5Catch7ExprLhsIfEC1Ef
FNDA:4,_ZN5Catch7ExprLhsIfEC2Ef
FNDA:11,_ZN5CatcheqIRNS_6ApproxEEENSt3__19enable_ifIXsr6Detail11conjunctionINS_6Detail16is_eq_comparableIdT_vEENS3_8negationINS_16capture_by_valueIu20__remove_reference_tIS7_EEEEEEE5valueENS_10BinaryExprIdRKS7_EEE4typeEONS_7ExprLhsIdEEOS7_
FNDA:4,_ZN5CatcheqIRNS_6ApproxEEENSt3__19enable_ifIXsr6Detail11conjunctionINS_6Detail16is_eq_comparableIfT_vEENS3_8negationINS_16capture_by_valueIu20__remove_reference_tIS7_EEEEEEE5valueENS_10BinaryExprIfRKS7_EEE4typeEONS_7ExprLhsIfEEOS7_
FNDA:2,_ZN5CatcheqIbEENSt3__19enable_ifIXsr6Detail11conjunctionINS_6Detail16is_eq_comparableIbT_vEENS_16capture_by_valueIS5_EEEE5valueENS_10BinaryExprIbS5_EEE4typeEONS_7ExprLhsIbEES5_
FNDA:1,_ZN5CatchltIfEENSt3__19enable_ifIXsr6Detail11conjunctionINS_6Detail16is_lt_comparableIdT_vEENS_16capture_by_valueIS5_EEEE5valueENS_10BinaryExprIdS5_EEE4typeEONS_7ExprLhsIdEES5_
FNDA:2,_ZNK5Catch7ExprLhsIbE13makeUnaryExprEv
FNDA:4,_ZN5CatchleIbLi0EEENS_7ExprLhsIT_EEONS_10DecomposerES2_
FNDA:12,_ZN5CatchleIdLi0EEENS_7ExprLhsIT_EEONS_10DecomposerES2_
FNDA:4,_ZN5CatchleIfLi0EEENS_7ExprLhsIT_EEONS_10DecomposerES2_
FNDA:20,_ZN5Catch16AssertionHandlerD1Ev
FNDA:20,_ZN5Catch16AssertionHandlerD2Ev
FNDA:2,_ZN5Catch16AssertionHandler10handleExprIbEEvRKNS_7ExprLhsIT_EE
FNDA:16,_ZN5Catch11NameAndTagsC1ENS_9StringRefES1_
FNDA:16,_ZN5Catch11NameAndTagsC2ENS_9StringRefES1_
FNDA:169,_ZN5Catch9StringRefC1Ev
FNDA:169,_ZN5Catch9StringRefC2Ev
FNDA:717,_ZN5Catch9StringRefC1EPKcm
FNDA:717,_ZN5Catch9StringRefC2EPKcm
FNDA:230,_ZN5Catchli3_srEPKcm
FNDA:40,_Zli9_catch_srPKcm
FNDA:62,_ZN5Catch6Detail10unique_ptrINS_12ITestInvokerEED1Ev
FNDA:62,_ZN5Catch6Detail10unique_ptrINS_12ITestInvokerEED2Ev
FNF:71
FNH:59
DA:698,169
DA:699,169
DA:702,507
DA:706,1434
DA:707,717
DA:708,717
DA:709,1434
DA:779,230
DA:780,230
DA:784,40
DA:785,40
DA:893,124
DA:894,62
DA:895,124
DA:2566,3
DA:2567,3
DA:2687,0
DA:2689,0
DA:3121,11
DA:3122,11
DA:3126,15
DA:3127,15
DA:3128,15
DA:3167,15
DA:3168,15
DA:3169,15
DA:3170,15
DA:3226,90
DA:3227,45
DA:3228,45
DA:3229,90
DA:5287,20
DA:5288,20
DA:5289,20
DA:5290,40
DA:5298,20
DA:5314,1
DA:5315,1
DA:5316,1
DA:5317,1
DA:5320,36
DA:5321,18
DA:5322,18
DA:5323,18
DA:5324,18
DA:5325,54
DA:5388,0
DA:5389,0
DA:5390,0
DA:5393,4
DA:5394,2
DA:5395,2
DA:5396,6
DA:5404,40
DA:5454,17
DA:5504,1
DA:5549,2
DA:5550,2
DA:5565,20
DA:5566,20
DA:5605,40
DA:5606,20
DA:5607,0
DA:5608,0
DA:5609,40
DA:5613,2
DA:5614,2
DA:5615,2
DA:6000,32
DA:6002,32
LF:70
LH:63
end_of_record
TN:
SF:/Users/jubair/CLionProjects/untitled/test/gameTest.cpp
FN:0,__cxx_global_var_init
FN:0,__cxx_global_var_init.1
FN:0,__cxx_global_var_init.11
FN:0,__cxx_global_var_init.13
FN:0,__cxx_global_var_init.15
FN:0,__cxx_global_var_init.17
FN:0,__cxx_global_var_init.19
FN:0,__cxx_global_var_init.2
FN:0,__cxx_global_var_init.5
FN:0,__cxx_global_var_init.8
FN:10,_ZL22CATCH2_INTERNAL_TEST_0v
FN:15,_ZL22CATCH2_INTERNAL_TEST_2v
FN:21,_ZL22CATCH2_INTERNAL_TEST_4v
FN:32,_ZL22CATCH2_INTERNAL_TEST_6v
FN:44,_ZL22CATCH2_INTERNAL_TEST_8v
FN:55,_ZL23CATCH2_INTERNAL_TEST_10v
FN:71,_ZL23CATCH2_INTERNAL_TEST_12v
FN:86,_ZL23CATCH2_INTERNAL_TEST_14v
FNDA:2,__cxx_global_var_init
FNDA:2,__cxx_global_var_init.1
FNDA:2,__cxx_global_var_init.11
FNDA:2,__cxx_global_var_init.13
FNDA:2,__cxx_global_var_init.15
FNDA:2,__cxx_global_var_init.17
FNDA:2,__cxx_global_var_init.19
FNDA:2,__cxx_global_var_init.2
FNDA:2,__cxx_global_var_init.5
FNDA:2,__cxx_global_var_init.8
FNDA:1,_ZL22CATCH2_INTERNAL_TEST_0v
FNDA:1,_ZL22CATCH2_INTERNAL_TEST_2v
FNDA:1,_ZL22CATCH2_INTERNAL_TEST_4v
FNDA:1,_ZL22CATCH2_INTERNAL_TEST_6v
FNDA:1,_ZL22CATCH2_INTERNAL_TEST_8v
FNDA:1,_ZL23CATCH2_INTERNAL_TEST_10v
FNDA:1,_ZL23CATCH2_INTERNAL_TEST_12v
FNDA:1,_ZL23CATCH2_INTERNAL_TEST_14v
FNF:18
FNH:18
DA:10,3
DA:11,1
DA:12,1
DA:13,1
DA:15,3
DA:16,1
DA:17,1
DA:18,1
DA:19,1
DA:20,1
DA:21,3
DA:22,1
DA:23,1
DA:24,1
DA:25,1
DA:27,1
DA:29,1
DA:30,1
DA:31,1
DA:32,3
DA:33,1
DA:34,1
DA:35,1
DA:36,1
DA:38,1
DA:41,1
DA:42,1
DA:43,1
DA:44,3
DA:45,1
DA:46,1
DA:47,1
DA:49,1
DA:50,1
DA:51,1
DA:52,1
DA:53,1
DA:55,3
DA:56,1
DA:57,1
DA:58,4
DA:59,1
DA:60,1
DA:61,1
DA:64,3
DA:65,3
DA:66,4
DA:67,2
DA:68,2
DA:69,4
DA:70,2
DA:71,3
DA:72,1
DA:73,1
DA:76,1
DA:77,1
DA:80,1
DA:81,1
DA:83,1
DA:84,1
DA:85,1
DA:86,3
DA:87,1
DA:88,1
DA:91,1
DA:93,1
DA:94,1
DA:96,1
DA:97,1
LF:69
LH:69
end_of_record
TN:
SF:/opt/homebrew/include/SFML/Graphics/CircleShape.hpp
FN:41,_ZN2sf11CircleShapeC1ERKS0_
FN:41,_ZN2sf11CircleShapeC2ERKS0_
FN:41,_ZN2sf11CircleShapeD1Ev
FN:41,_ZN2sf11CircleShapeD2Ev
FNDA:7,_ZN2sf11CircleShapeC1ERKS0_
FNDA:7,_ZN2sf11CircleShapeC2ERKS0_
FNDA:23,_ZN2sf11CircleShapeD1Ev
FNDA:23,_ZN2sf11CircleShapeD2Ev
FNF:4
FNH:4
LF:0
LH:0
end_of_record
TN:
SF:/opt/homebrew/include/SFML/Graphics/Drawable.hpp
FN:44,_ZN2sf8DrawableC2ERKS0_
FN:52,52,_ZN2sf8DrawableD0Ev
FN:52,52,_ZN2sf8DrawableD1Ev
FN:52,52,_ZN2sf8DrawableD2Ev
FNDA:21,_ZN2sf8DrawableC2ERKS0_
FNDA:0,_ZN2sf8DrawableD0Ev
FNDA:0,_ZN2sf8DrawableD1Ev
FNDA:1,_ZN2sf8DrawableD2Ev
FNF:4
FNH:2
DA:52,1
LF:1
LH:1
end_of_record
TN:
SF:/opt/homebrew/include/SFML/Graphics/RectangleShape.hpp
FN:41,_ZN2sf14RectangleShapeD1Ev
FN:41,_ZN2sf14RectangleShapeD2Ev
FNDA:1,_ZN2sf14RectangleShapeD1Ev
FNDA:1,_ZN2sf14RectangleShapeD2Ev
FNF:2
FNH:2
LF:0
LH:0
end_of_record
TN:
SF:/opt/homebrew/include/SFML/Graphics/Shape.hpp
FN:44,44,_ZN2sf5ShapeC2ERKS0_
FNDA:7,_ZN2sf5ShapeC2ERKS0_
FNF:1
FNH:1
DA:44,7
LF:1
LH:1
end_of_record
TN:
SF:/opt/homebrew/include/SFML/Graphics/Transformable.hpp
FN:41,_ZN2sf13TransformableC2ERKS0_
FNDA:7,_ZN2sf13TransformableC2ERKS0_
FNF:1
FNH:1
LF:0
LH:0
end_of_record
TN:
SF:/opt/homebrew/include/SFML/Graphics/VertexArray.hpp
FN:45,45,_ZN2sf11VertexArrayC1ERKS0_
FN:45,45,_ZN2sf11VertexArrayC2ERKS0_
FN:45,45,_ZN2sf11VertexArrayD1Ev
FN:45,45,_ZN2sf11VertexArrayD2Ev
FNDA:14,_ZN2sf11VertexArrayC1ERKS0_
FNDA:14,_ZN2sf11VertexArrayC2ERKS0_
FNDA:1,_ZN2sf11VertexArrayD1Ev
FNDA:1,_ZN2sf11VertexArrayD2Ev
FNF:4
FNH:4
DA:45,14
LF:1
LH:1
end_of_record
TN:
SF:/opt/homebrew/include/SFML/System/String.hpp
FN:45,_ZN2sf6StringD1Ev
FN:45,_ZN2sf6StringD2Ev
FNDA:1,_ZN2sf6StringD1Ev
FNDA:1,_ZN2sf6StringD2Ev
FNF:2
FNH:2
LF:0
LH:0
end_of_record
TN:
SF:/opt/homebrew/include/SFML/System/Vector2.inl
FN:38,_ZN2sf7Vector2IfEC1Eff
FN:38,_ZN2sf7Vector2IfEC2Eff
FNDA:124,_ZN2sf7Vector2IfEC1Eff
FNDA:124,_ZN2sf7Vector2IfEC2Eff
FNF:2
FNH:2
DA:38,248
DA:39,124
DA:40,124
DA:41,124
DA:43,248
LF:5
LH:5
end_of_record
TN:
SF:/opt/homebrew/include/SFML/Window/ContextSettings.hpp
FN:62,71,_ZN2sf15ContextSettingsC1Ejjjjjjb
FN:62,71,_ZN2sf15ContextSettingsC2Ejjjjjjb
FNDA:1,_ZN2sf15ContextSettingsC1Ejjjjjjb
FNDA:1,_ZN2sf15ContextSettingsC2Ejjjjjjb
FNF:2
FNH:2
DA:62,2
DA:63,1
DA:64,1
DA:65,1
DA:66,1
DA:67,1
DA:68,1
DA:69,1
DA:70,1
DA:71,2
LF:10
LH:10
end_of_record
TN:
SF:/opt/homebrew/include/boost/array.hpp
FN:115,117,_ZN5boost5arrayIdLm1EEixEm
FN:115,117,_ZN5boost5arrayIdLm2EEixEm
FN:115,117,_ZN5boost5arrayIdLm3EEixEm
FN:115,117,_ZN5boost5arrayIdLm4EEixEm
FN:120,122,_ZNK5boost5arrayIdLm1EEixEm
FN:120,122,_ZNK5boost5arrayIdLm2EEixEm
FN:120,122,_ZNK5boost5arrayIdLm3EEixEm
FN:120,122,_ZNK5boost5arrayIdLm4EEixEm
FN:60,60,_ZN5boost5arrayINS_6detail11multi_array11index_rangeIlmEELm1EEC1Ev
FN:60,60,_ZN5boost5arrayINS_6detail11multi_array11index_rangeIlmEELm1EEC2Ev
FN:60,60,_ZN5boost5arrayINS_6detail11multi_array12extent_rangeIlmEELm1EEC1Ev
FN:60,60,_ZN5boost5arrayINS_6detail11multi_array12extent_rangeIlmEELm1EEC2Ev
FNDA:2,_ZN5boost5arrayIdLm1EEixEm
FNDA:4,_ZN5boost5arrayIdLm2EEixEm
FNDA:6,_ZN5boost5arrayIdLm3EEixEm
FNDA:16,_ZN5boost5arrayIdLm4EEixEm
FNDA:121,_ZNK5boost5arrayIdLm1EEixEm
FNDA:242,_ZNK5boost5arrayIdLm2EEixEm
FNDA:363,_ZNK5boost5arrayIdLm3EEixEm
FNDA:492,_ZNK5boost5arrayIdLm4EEixEm
FNDA:8,_ZN5boost5arrayINS_6detail11multi_array11index_rangeIlmEELm1EEC1Ev
FNDA:8,_ZN5boost5arrayINS_6detail11multi_array11index_rangeIlmEELm1EEC2Ev
FNDA:8,_ZN5boost5arrayINS_6detail11multi_array12extent_rangeIlmEELm1EEC1Ev
FNDA:8,_ZN5boost5arrayINS_6detail11multi_array12extent_rangeIlmEELm1EEC2Ev
FNF:12
FNH:12
DA:60,16
DA:115,28
DA:117,56
DA:120,1218
DA:122,2436
LF:5
LH:5
end_of_record
TN:
SF:/opt/homebrew/include/boost/fusion/algorithm/iteration/detail/for_each.hpp
FN:123,125,_ZN5boost6fusion6detail17for_each_unrolledILi0EE4callINS0_15vector_iteratorIKNS_7numeric6odeint6detail20generic_rk_algorithmILm4EdNS7_13array_algebraENS7_18default_operationsEE12stage_vectorELi4EEENSC_15calculate_stageIPFvRKNSt3__15arrayIdLm4EEERSJ_dESJ_SJ_SJ_NS7_13state_wrapperISJ_vEESJ_dEEEEvRKT_RKT0_
FN:131,136,_ZN5boost6fusion6detail17for_each_dispatchIKNS_7numeric6odeint6detail20generic_rk_algorithmILm4EdNS4_13array_algebraENS4_18default_operationsEE12stage_vectorENS9_15calculate_stageIPFvRKNSt3__15arrayIdLm4EEERSF_dESF_SF_SF_NS4_13state_wrapperISF_vEESF_dEEEEvRT_RT0_NS0_27random_access_traversal_tagE
FN:141,144,_ZN5boost6fusion6detail8for_eachIKNS_7numeric6odeint6detail20generic_rk_algorithmILm4EdNS4_13array_algebraENS4_18default_operationsEE12stage_vectorENS9_15calculate_stageIPFvRKNSt3__15arrayIdLm4EEERSF_dESF_SF_SF_NS4_13state_wrapperISF_vEESF_dEEEEvRT_RT0_N4mpl_5bool_ILb0EEE
FN:60,73,_ZN5boost6fusion6detail17for_each_unrolledILi4EE4callINS0_15vector_iteratorIKNS_7numeric6odeint6detail20generic_rk_algorithmILm4EdNS7_13array_algebraENS7_18default_operationsEE12stage_vectorELi0EEENSC_15calculate_stageIPFvRKNSt3__15arrayIdLm4EEERSJ_dESJ_SJ_SJ_NS7_13state_wrapperISJ_vEESJ_dEEEEvRKT_RT0_
FNDA:121,_ZN5boost6fusion6detail17for_each_unrolledILi0EE4callINS0_15vector_iteratorIKNS_7numeric6odeint6detail20generic_rk_algorithmILm4EdNS7_13array_algebraENS7_18default_operationsEE12stage_vectorELi4EEENSC_15calculate_stageIPFvRKNSt3__15arrayIdLm4EEERSJ_dESJ_SJ_SJ_NS7_13state_wrapperISJ_vEESJ_dEEEEvRKT_RKT0_
FNDA:121,_ZN5boost6fusion6detail17for_each_dispatchIKNS_7numeric6odeint6detail20generic_rk_algorithmILm4EdNS4_13array_algebraENS4_18default_operationsEE12stage_vectorENS9_15calculate_stageIPFvRKNSt3__15arrayIdLm4EEERSF_dESF_SF_SF_NS4_13state_wrapperISF_vEESF_dEEEEvRT_RT0_NS0_27random_access_traversal_tagE
FNDA:121,_ZN5boost6fusion6detail8for_eachIKNS_7numeric6odeint6detail20generic_rk_algorithmILm4EdNS4_13array_algebraENS4_18default_operationsEE12stage_vectorENS9_15calculate_stageIPFvRKNSt3__15arrayIdLm4EEERSF_dESF_SF_SF_NS4_13state_wrapperISF_vEESF_dEEEEvRT_RT0_N4mpl_5bool_ILb0EEE
FNDA:121,_ZN5boost6fusion6detail17for_each_unrolledILi4EE4callINS0_15vector_iteratorIKNS_7numeric6odeint6detail20generic_rk_algorithmILm4EdNS7_13array_algebraENS7_18default_operationsEE12stage_vectorELi0EEENSC_15calculate_stageIPFvRKNSt3__15arrayIdLm4EEERSJ_dESJ_SJ_SJ_NS7_13state_wrapperISJ_vEESJ_dEEEEvRKT_RT0_
FNF:4
FNH:4
DA:60,121
DA:62,121
DA:64,121
DA:65,121
DA:67,121
DA:68,121
DA:70,121
DA:71,121
DA:72,121
DA:73,121
DA:123,121
DA:125,121
DA:131,121
DA:135,121
DA:136,121
DA:141,121
DA:143,121
DA:144,121
LF:18
LH:18
end_of_record
TN:
SF:/opt/homebrew/include/boost/fusion/algorithm/iteration/for_each.hpp
FN:41,44,_ZN5boost6fusion8for_eachINS_7numeric6odeint6detail20generic_rk_algorithmILm4EdNS3_13array_algebraENS3_18default_operationsEE12stage_vectorENS8_15calculate_stageIPFvRKNSt3__15arrayIdLm4EEERSD_dESD_SD_SD_NS3_13state_wrapperISD_vEESD_dEEEENS_9enable_ifINS0_6traits11is_sequenceIT_EEvE4typeERKSP_T0_
FNDA:121,_ZN5boost6fusion8for_eachINS_7numeric6odeint6detail20generic_rk_algorithmILm4EdNS3_13array_algebraENS3_18default_operationsEE12stage_vectorENS8_15calculate_stageIPFvRKNSt3__15arrayIdLm4EEERSD_dESD_SD_SD_NS3_13state_wrapperISD_vEESD_dEEEENS_9enable_ifINS0_6traits11is_sequenceIT_EEvE4typeERKSP_T0_
FNF:1
FNH:1
DA:41,121
DA:43,121
DA:44,121
LF:3
LH:3
end_of_record
TN:
SF:/opt/homebrew/include/boost/fusion/container/generation/make_vector.hpp
FN:46,48,_ZN5boost6fusion11make_vectorIJNS_7numeric6odeint19rk4_coefficients_a1IdEENS3_19rk4_coefficients_a2IdEENS3_19rk4_coefficients_a3IdEEEEENS0_9result_of11make_vectorIJDpT_EE4typeEDpOSC_
FNDA:2,_ZN5boost6fusion11make_vectorIJNS_7numeric6odeint19rk4_coefficients_a1IdEENS3_19rk4_coefficients_a2IdEENS3_19rk4_coefficients_a3IdEEEEENS0_9result_of11make_vectorIJDpT_EE4typeEDpOSC_
FNF:1
FNH:1
DA:46,2
DA:48,2
LF:2
LH:2
end_of_record
TN:
SF:/opt/homebrew/include/boost/fusion/container/vector/detail/advance_impl.hpp
FN:34,36,_ZN5boost6fusion9extension12advance_implINS0_19vector_iterator_tagEE5applyINS0_15vector_iteratorINS0_6vectorIJNS_7numeric6odeint19rk4_coefficients_a1IdEENS9_19rk4_coefficients_a2IdEENS9_19rk4_coefficients_a3IdEEEEELi0EEEN4mpl_4int_ILi0EEEE4callERKSH_
FN:34,36,_ZN5boost6fusion9extension12advance_implINS0_19vector_iterator_tagEE5applyINS0_15vector_iteratorINS0_6vectorIJNS_7numeric6odeint19rk4_coefficients_a1IdEENS9_19rk4_coefficients_a2IdEENS9_19rk4_coefficients_a3IdEEEEELi0EEEN4mpl_4int_ILi1EEEE4callERKSH_
FN:34,36,_ZN5boost6fusion9extension12advance_implINS0_19vector_iterator_tagEE5applyINS0_15vector_iteratorINS0_6vectorIJNS_7numeric6odeint19rk4_coefficients_a1IdEENS9_19rk4_coefficients_a2IdEENS9_19rk4_coefficients_a3IdEEEEELi0EEEN4mpl_4int_ILi2EEEE4callERKSH_
FNDA:2,_ZN5boost6fusion9extension12advance_implINS0_19vector_iterator_tagEE5applyINS0_15vector_iteratorINS0_6vectorIJNS_7numeric6odeint19rk4_coefficients_a1IdEENS9_19rk4_coefficients_a2IdEENS9_19rk4_coefficients_a3IdEEEEELi0EEEN4mpl_4int_ILi0EEEE4callERKSH_
FNDA:2,_ZN5boost6fusion9extension12advance_implINS0_19vector_iterator_tagEE5applyINS0_15vector_iteratorINS0_6vectorIJNS_7numeric6odeint19rk4_coefficients_a1IdEENS9_19rk4_coefficients_a2IdEENS9_19rk4_coefficients_a3IdEEEEELi0EEEN4mpl_4int_ILi1EEEE4callERKSH_
FNDA:2,_ZN5boost6fusion9extension12advance_implINS0_19vector_iterator_tagEE5applyINS0_15vector_iteratorINS0_6vectorIJNS_7numeric6odeint19rk4_coefficients_a1IdEENS9_19rk4_coefficients_a2IdEENS9_19rk4_coefficients_a3IdEEEEELi0EEEN4mpl_4int_ILi2EEEE4callERKSH_
FNF:3
FNH:3
DA:34,6
DA:36,6
LF:2
LH:2
end_of_record
TN:
SF:/opt/homebrew/include/boost/fusion/container/vector/detail/at_impl.hpp
FN:35,38,_ZN5boost6fusion9extension7at_implINS0_10vector_tagEE5applyINS0_6vectorIJNS_7numeric6odeint6detail5stageIdLm1EEENSA_IdLm2EEENSA_IdLm3EEENSA_IdLm4EEEEEEN4mpl_10integral_cImLm0EEEE4callERSF_
FN:35,38,_ZN5boost6fusion9extension7at_implINS0_10vector_tagEE5applyINS0_6vectorIJNS_7numeric6odeint6detail5stageIdLm1EEENSA_IdLm2EEENSA_IdLm3EEENSA_IdLm4EEEEEEN4mpl_10integral_cImLm1EEEE4callERSF_
FN:35,38,_ZN5boost6fusion9extension7at_implINS0_10vector_tagEE5applyINS0_6vectorIJNS_7numeric6odeint6detail5stageIdLm1EEENSA_IdLm2EEENSA_IdLm3EEENSA_IdLm4EEEEEEN4mpl_10integral_cImLm2EEEE4callERSF_
FN:35,38,_ZN5boost6fusion9extension7at_implINS0_10vector_tagEE5applyINS_7numeric6odeint6detail20generic_rk_algorithmILm4EdNS7_13array_algebraENS7_18default_operationsEE12stage_vectorEN4mpl_4int_ILi3EEEE4callERSD_
FN:50,53,_ZN5boost6fusion9extension7at_implINS0_10vector_tagEE5applyIKNS0_6vectorIJKNS_5arrayIdLm1EEEKNS7_IdLm2EEEKNS7_IdLm3EEEEEEN4mpl_10integral_cImLm0EEEE4callERSF_
FN:50,53,_ZN5boost6fusion9extension7at_implINS0_10vector_tagEE5applyIKNS0_6vectorIJKNS_5arrayIdLm1EEEKNS7_IdLm2EEEKNS7_IdLm3EEEEEEN4mpl_10integral_cImLm1EEEE4callERSF_
FN:50,53,_ZN5boost6fusion9extension7at_implINS0_10vector_tagEE5applyIKNS0_6vectorIJKNS_5arrayIdLm1EEEKNS7_IdLm2EEEKNS7_IdLm3EEEEEEN4mpl_10integral_cImLm2EEEE4callERSF_
FNDA:4,_ZN5boost6fusion9extension7at_implINS0_10vector_tagEE5applyINS0_6vectorIJNS_7numeric6odeint6detail5stageIdLm1EEENSA_IdLm2EEENSA_IdLm3EEENSA_IdLm4EEEEEEN4mpl_10integral_cImLm0EEEE4callERSF_
FNDA:4,_ZN5boost6fusion9extension7at_implINS0_10vector_tagEE5applyINS0_6vectorIJNS_7numeric6odeint6detail5stageIdLm1EEENSA_IdLm2EEENSA_IdLm3EEENSA_IdLm4EEEEEEN4mpl_10integral_cImLm1EEEE4callERSF_
FNDA:4,_ZN5boost6fusion9extension7at_implINS0_10vector_tagEE5applyINS0_6vectorIJNS_7numeric6odeint6detail5stageIdLm1EEENSA_IdLm2EEENSA_IdLm3EEENSA_IdLm4EEEEEEN4mpl_10integral_cImLm2EEEE4callERSF_
FNDA:4,_ZN5boost6fusion9extension7at_implINS0_10vector_tagEE5applyINS_7numeric6odeint6detail20generic_rk_algorithmILm4EdNS7_13array_algebraENS7_18default_operationsEE12stage_vectorEN4mpl_4int_ILi3EEEE4callERSD_
FNDA:2,_ZN5boost6fusion9extension7at_implINS0_10vector_tagEE5applyIKNS0_6vectorIJKNS_5arrayIdLm1EEEKNS7_IdLm2EEEKNS7_IdLm3EEEEEEN4mpl_10integral_cImLm0EEEE4callERSF_
FNDA:2,_ZN5boost6fusion9extension7at_implINS0_10vector_tagEE5applyIKNS0_6vectorIJKNS_5arrayIdLm1EEEKNS7_IdLm2EEEKNS7_IdLm3EEEEEEN4mpl_10integral_cImLm1EEEE4callERSF_
FNDA:2,_ZN5boost6fusion9extension7at_implINS0_10vector_tagEE5applyIKNS0_6vectorIJKNS_5arrayIdLm1EEEKNS7_IdLm2EEEKNS7_IdLm3EEEEEEN4mpl_10integral_cImLm2EEEE4callERSF_
FNF:7
FNH:7
DA:35,16
DA:38,16
DA:50,6
DA:53,6
LF:4
LH:4
end_of_record
TN:
SF:/opt/homebrew/include/boost/fusion/container/vector/detail/begin_impl.hpp
FN:32,34,_ZN5boost6fusion9extension10begin_implINS0_10vector_tagEE5applyIKNS_7numeric6odeint6detail20generic_rk_algorithmILm4EdNS7_13array_algebraENS7_18default_operationsEE12stage_vectorEE4callERSE_
FN:32,34,_ZN5boost6fusion9extension10begin_implINS0_10vector_tagEE5applyINS0_6vectorIJNS_7numeric6odeint19rk4_coefficients_a1IdEENS8_19rk4_coefficients_a2IdEENS8_19rk4_coefficients_a3IdEEEEEE4callERSF_
FNDA:121,_ZN5boost6fusion9extension10begin_implINS0_10vector_tagEE5applyIKNS_7numeric6odeint6detail20generic_rk_algorithmILm4EdNS7_13array_algebraENS7_18default_operationsEE12stage_vectorEE4callERSE_
FNDA:6,_ZN5boost6fusion9extension10begin_implINS0_10vector_tagEE5applyINS0_6vectorIJNS_7numeric6odeint19rk4_coefficients_a1IdEENS8_19rk4_coefficients_a2IdEENS8_19rk4_coefficients_a3IdEEEEEE4callERSF_
FNF:2
FNH:2
DA:32,127
DA:34,127
LF:2
LH:2
end_of_record
TN:
SF:/opt/homebrew/include/boost/fusion/container/vector/detail/deref_impl.hpp
FN:45,47,_ZN5boost6fusion9extension10deref_implINS0_19vector_iterator_tagEE5applyINS0_15vector_iteratorIKNS_7numeric6odeint6detail20generic_rk_algorithmILm4EdNS8_13array_algebraENS8_18default_operationsEE12stage_vectorELi0EEEE4callERKSG_
FN:45,47,_ZN5boost6fusion9extension10deref_implINS0_19vector_iterator_tagEE5applyINS0_15vector_iteratorIKNS_7numeric6odeint6detail20generic_rk_algorithmILm4EdNS8_13array_algebraENS8_18default_operationsEE12stage_vectorELi1EEEE4callERKSG_
FN:45,47,_ZN5boost6fusion9extension10deref_implINS0_19vector_iterator_tagEE5applyINS0_15vector_iteratorIKNS_7numeric6odeint6detail20generic_rk_algorithmILm4EdNS8_13array_algebraENS8_18default_operationsEE12stage_vectorELi2EEEE4callERKSG_
FN:45,47,_ZN5boost6fusion9extension10deref_implINS0_19vector_iterator_tagEE5applyINS0_15vector_iteratorIKNS_7numeric6odeint6detail20generic_rk_algorithmILm4EdNS8_13array_algebraENS8_18default_operationsEE12stage_vectorELi3EEEE4callERKSG_
FN:45,47,_ZN5boost6fusion9extension10deref_implINS0_19vector_iterator_tagEE5applyINS0_15vector_iteratorINS0_6vectorIJNS_7numeric6odeint19rk4_coefficients_a1IdEENS9_19rk4_coefficients_a2IdEENS9_19rk4_coefficients_a3IdEEEEELi0EEEE4callERKSH_
FN:45,47,_ZN5boost6fusion9extension10deref_implINS0_19vector_iterator_tagEE5applyINS0_15vector_iteratorINS0_6vectorIJNS_7numeric6odeint19rk4_coefficients_a1IdEENS9_19rk4_coefficients_a2IdEENS9_19rk4_coefficients_a3IdEEEEELi1EEEE4callERKSH_
FN:45,47,_ZN5boost6fusion9extension10deref_implINS0_19vector_iterator_tagEE5applyINS0_15vector_iteratorINS0_6vectorIJNS_7numeric6odeint19rk4_coefficients_a1IdEENS9_19rk4_coefficients_a2IdEENS9_19rk4_coefficients_a3IdEEEEELi2EEEE4callERKSH_
FNDA:121,_ZN5boost6fusion9extension10deref_implINS0_19vector_iterator_tagEE5applyINS0_15vector_iteratorIKNS_7numeric6odeint6detail20generic_rk_algorithmILm4EdNS8_13array_algebraENS8_18default_operationsEE12stage_vectorELi0EEEE4callERKSG_
FNDA:121,_ZN5boost6fusion9extension10deref_implINS0_19vector_iterator_tagEE5applyINS0_15vector_iteratorIKNS_7numeric6odeint6detail20generic_rk_algorithmILm4EdNS8_13array_algebraENS8_18default_operationsEE12stage_vectorELi1EEEE4callERKSG_
FNDA:121,_ZN5boost6fusion9extension10deref_implINS0_19vector_iterator_tagEE5applyINS0_15vector_iteratorIKNS_7numeric6odeint6detail20generic_rk_algorithmILm4EdNS8_13array_algebraENS8_18default_operationsEE12stage_vectorELi2EEEE4callERKSG_
FNDA:121,_ZN5boost6fusion9extension10deref_implINS0_19vector_iterator_tagEE5applyINS0_15vector_iteratorIKNS_7numeric6odeint6detail20generic_rk_algorithmILm4EdNS8_13array_algebraENS8_18default_operationsEE12stage_vectorELi3EEEE4callERKSG_
FNDA:2,_ZN5boost6fusion9extension10deref_implINS0_19vector_iterator_tagEE5applyINS0_15vector_iteratorINS0_6vectorIJNS_7numeric6odeint19rk4_coefficients_a1IdEENS9_19rk4_coefficients_a2IdEENS9_19rk4_coefficients_a3IdEEEEELi0EEEE4callERKSH_
FNDA:2,_ZN5boost6fusion9extension10deref_implINS0_19vector_iterator_tagEE5applyINS0_15vector_iteratorINS0_6vectorIJNS_7numeric6odeint19rk4_coefficients_a1IdEENS9_19rk4_coefficients_a2IdEENS9_19rk4_coefficients_a3IdEEEEELi1EEEE4callERKSH_
FNDA:2,_ZN5boost6fusion9extension10deref_implINS0_19vector_iterator_tagEE5applyINS0_15vector_iteratorINS0_6vectorIJNS_7numeric6odeint19rk4_coefficients_a1IdEENS9_19rk4_coefficients_a2IdEENS9_19rk4_coefficients_a3IdEEEEELi2EEEE4callERKSH_
FNF:7
FNH:7
DA:45,490
DA:47,490
LF:2
LH:2
end_of_record
TN:
SF:/opt/homebrew/include/boost/fusion/container/vector/detail/next_impl.hpp
FN:36,38,_ZN5boost6fusion9extension9next_implINS0_19vector_iterator_tagEE5applyINS0_15vector_iteratorIKNS_7numeric6odeint6detail20generic_rk_algorithmILm4EdNS8_13array_algebraENS8_18default_operationsEE12stage_vectorELi0EEEE4callERKSG_
FN:36,38,_ZN5boost6fusion9extension9next_implINS0_19vector_iterator_tagEE5applyINS0_15vector_iteratorIKNS_7numeric6odeint6detail20generic_rk_algorithmILm4EdNS8_13array_algebraENS8_18default_operationsEE12stage_vectorELi1EEEE4callERKSG_
FN:36,38,_ZN5boost6fusion9extension9next_implINS0_19vector_iterator_tagEE5applyINS0_15vector_iteratorIKNS_7numeric6odeint6detail20generic_rk_algorithmILm4EdNS8_13array_algebraENS8_18default_operationsEE12stage_vectorELi2EEEE4callERKSG_
FN:36,38,_ZN5boost6fusion9extension9next_implINS0_19vector_iterator_tagEE5applyINS0_15vector_iteratorIKNS_7numeric6odeint6detail20generic_rk_algorithmILm4EdNS8_13array_algebraENS8_18default_operationsEE12stage_vectorELi3EEEE4callERKSG_
FNDA:121,_ZN5boost6fusion9extension9next_implINS0_19vector_iterator_tagEE5applyINS0_15vector_iteratorIKNS_7numeric6odeint6detail20generic_rk_algorithmILm4EdNS8_13array_algebraENS8_18default_operationsEE12stage_vectorELi0EEEE4callERKSG_
FNDA:121,_ZN5boost6fusion9extension9next_implINS0_19vector_iterator_tagEE5applyINS0_15vector_iteratorIKNS_7numeric6odeint6detail20generic_rk_algorithmILm4EdNS8_13array_algebraENS8_18default_operationsEE12stage_vectorELi1EEEE4callERKSG_
FNDA:121,_ZN5boost6fusion9extension9next_implINS0_19vector_iterator_tagEE5applyINS0_15vector_iteratorIKNS_7numeric6odeint6detail20generic_rk_algorithmILm4EdNS8_13array_algebraENS8_18default_operationsEE12stage_vectorELi2EEEE4callERKSG_
FNDA:121,_ZN5boost6fusion9extension9next_implINS0_19vector_iterator_tagEE5applyINS0_15vector_iteratorIKNS_7numeric6odeint6detail20generic_rk_algorithmILm4EdNS8_13array_algebraENS8_18default_operationsEE12stage_vectorELi3EEEE4callERKSG_
FNF:4
FNH:4
DA:36,484
DA:38,484
LF:2
LH:2
end_of_record
TN:
SF:/opt/homebrew/include/boost/fusion/container/vector/vector.hpp
FN:117,122,_ZN5boost6fusion13vector_detail12forward_at_cILi0ENS0_6vectorIJNS_7numeric6odeint19rk4_coefficients_a1IdEENS5_19rk4_coefficients_a2IdEENS5_19rk4_coefficients_a3IdEEEEEEENS1_9result_of12forward_at_cIT0_XT_EE4typeEOSF_
FN:117,122,_ZN5boost6fusion13vector_detail12forward_at_cILi1ENS0_6vectorIJNS_7numeric6odeint19rk4_coefficients_a1IdEENS5_19rk4_coefficients_a2IdEENS5_19rk4_coefficients_a3IdEEEEEEENS1_9result_of12forward_at_cIT0_XT_EE4typeEOSF_
FN:117,122,_ZN5boost6fusion13vector_detail12forward_at_cILi2ENS0_6vectorIJNS_7numeric6odeint19rk4_coefficients_a1IdEENS5_19rk4_coefficients_a2IdEENS5_19rk4_coefficients_a3IdEEEEEEENS1_9result_of12forward_at_cIT0_XT_EE4typeEOSF_
FN:130,132,_ZN5boost6fusion13vector_detail5storeILm0ENS_7numeric6odeint6detail5stageIdLm1EEEEC2Ev
FN:130,132,_ZN5boost6fusion13vector_detail5storeILm1ENS_7numeric6odeint6detail5stageIdLm2EEEEC2Ev
FN:130,132,_ZN5boost6fusion13vector_detail5storeILm2ENS_7numeric6odeint6detail5stageIdLm3EEEEC2Ev
FN:130,132,_ZN5boost6fusion13vector_detail5storeILm3ENS_7numeric6odeint6detail5stageIdLm4EEEEC2Ev
FN:167,169,_ZN5boost6fusion13vector_detail5storeILm0EKNS_5arrayIdLm1EEEEC2IRNS_7numeric6odeint19rk4_coefficients_a1IdEEvEEOT_
FN:167,169,_ZN5boost6fusion13vector_detail5storeILm0ENS_7numeric6odeint19rk4_coefficients_a1IdEEEC2IS6_vEEOT_
FN:167,169,_ZN5boost6fusion13vector_detail5storeILm1EKNS_5arrayIdLm2EEEEC2IRNS_7numeric6odeint19rk4_coefficients_a2IdEEvEEOT_
FN:167,169,_ZN5boost6fusion13vector_detail5storeILm1ENS_7numeric6odeint19rk4_coefficients_a2IdEEEC2IS6_vEEOT_
FN:167,169,_ZN5boost6fusion13vector_detail5storeILm2EKNS_5arrayIdLm3EEEEC2IRNS_7numeric6odeint19rk4_coefficients_a3IdEEvEEOT_
FN:167,169,_ZN5boost6fusion13vector_detail5storeILm2ENS_7numeric6odeint19rk4_coefficients_a3IdEEEC2IS6_vEEOT_
FN:196,196,_ZN5boost6fusion13vector_detail11vector_dataINSt3__116integer_sequenceImJLm0ELm1ELm2ELm3EEEEJNS_7numeric6odeint6detail5stageIdLm1EEENS9_IdLm2EEENS9_IdLm3EEENS9_IdLm4EEEEEC2Ev
FN:207,209,_ZN5boost6fusion13vector_detail11vector_dataINSt3__116integer_sequenceImJLm0ELm1ELm2EEEEJKNS_5arrayIdLm1EEEKNS6_IdLm2EEEKNS6_IdLm3EEEEEC2INS0_6vectorIJNS_7numeric6odeint19rk4_coefficients_a1IdEENSH_19rk4_coefficients_a2IdEENSH_19rk4_coefficients_a3IdEEEEESO_vEENS1_9each_elemEOT_
FN:214,216,_ZN5boost6fusion13vector_detail11vector_dataINSt3__116integer_sequenceImJLm0ELm1ELm2EEEEJNS_7numeric6odeint19rk4_coefficients_a1IdEENS7_19rk4_coefficients_a2IdEENS7_19rk4_coefficients_a3IdEEEEC2IJS9_SB_SD_EEENS1_9each_elemEDpOT_
FN:238,240,_ZN5boost6fusion13vector_detail11vector_dataINSt3__116integer_sequenceImJLm0ELm1ELm2EEEEJNS_7numeric6odeint19rk4_coefficients_a1IdEENS7_19rk4_coefficients_a2IdEENS7_19rk4_coefficients_a3IdEEEE7at_implIN4mpl_4int_ILi0EEEEERNDTcl13store_at_implIXsrT_5valueEEscPSE_LDnEEE9elem_typeESJ_
FN:238,240,_ZN5boost6fusion13vector_detail11vector_dataINSt3__116integer_sequenceImJLm0ELm1ELm2EEEEJNS_7numeric6odeint19rk4_coefficients_a1IdEENS7_19rk4_coefficients_a2IdEENS7_19rk4_coefficients_a3IdEEEE7at_implIN4mpl_4int_ILi1EEEEERNDTcl13store_at_implIXsrT_5valueEEscPSE_LDnEEE9elem_typeESJ_
FN:238,240,_ZN5boost6fusion13vector_detail11vector_dataINSt3__116integer_sequenceImJLm0ELm1ELm2EEEEJNS_7numeric6odeint19rk4_coefficients_a1IdEENS7_19rk4_coefficients_a2IdEENS7_19rk4_coefficients_a3IdEEEE7at_implIN4mpl_4int_ILi2EEEEERNDTcl13store_at_implIXsrT_5valueEEscPSE_LDnEEE9elem_typeESJ_
FN:238,240,_ZN5boost6fusion13vector_detail11vector_dataINSt3__116integer_sequenceImJLm0ELm1ELm2ELm3EEEEJNS_7numeric6odeint6detail5stageIdLm1EEENS9_IdLm2EEENS9_IdLm3EEENS9_IdLm4EEEEE7at_implIN4mpl_10integral_cImLm0EEEEERNDTcl13store_at_implIXsrT_5valueEEscPSE_LDnEEE9elem_typeESJ_
FN:238,240,_ZN5boost6fusion13vector_detail11vector_dataINSt3__116integer_sequenceImJLm0ELm1ELm2ELm3EEEEJNS_7numeric6odeint6detail5stageIdLm1EEENS9_IdLm2EEENS9_IdLm3EEENS9_IdLm4EEEEE7at_implIN4mpl_10integral_cImLm1EEEEERNDTcl13store_at_implIXsrT_5valueEEscPSE_LDnEEE9elem_typeESJ_
FN:238,240,_ZN5boost6fusion13vector_detail11vector_dataINSt3__116integer_sequenceImJLm0ELm1ELm2ELm3EEEEJNS_7numeric6odeint6detail5stageIdLm1EEENS9_IdLm2EEENS9_IdLm3EEENS9_IdLm4EEEEE7at_implIN4mpl_10integral_cImLm2EEEEERNDTcl13store_at_implIXsrT_5valueEEscPSE_LDnEEE9elem_typeESJ_
FN:238,240,_ZN5boost6fusion13vector_detail11vector_dataINSt3__116integer_sequenceImJLm0ELm1ELm2ELm3EEEEJNS_7numeric6odeint6detail5stageIdLm1EEENS9_IdLm2EEENS9_IdLm3EEENS9_IdLm4EEEEE7at_implIN4mpl_4int_ILi3EEEEERNDTcl13store_at_implIXsrT_5valueEEscPSE_LDnEEE9elem_typeESJ_
FN:245,247,_ZNK5boost6fusion13vector_detail11vector_dataINSt3__116integer_sequenceImJLm0ELm1ELm2EEEEJKNS_5arrayIdLm1EEEKNS6_IdLm2EEEKNS6_IdLm3EEEEE7at_implIN4mpl_10integral_cImLm0EEEEERKNDTcl13store_at_implIXsrT_5valueEEscPSD_LDnEEE9elem_typeESI_
FN:245,247,_ZNK5boost6fusion13vector_detail11vector_dataINSt3__116integer_sequenceImJLm0ELm1ELm2EEEEJKNS_5arrayIdLm1EEEKNS6_IdLm2EEEKNS6_IdLm3EEEEE7at_implIN4mpl_10integral_cImLm1EEEEERKNDTcl13store_at_implIXsrT_5valueEEscPSD_LDnEEE9elem_typeESI_
FN:245,247,_ZNK5boost6fusion13vector_detail11vector_dataINSt3__116integer_sequenceImJLm0ELm1ELm2EEEEJKNS_5arrayIdLm1EEEKNS6_IdLm2EEEKNS6_IdLm3EEEEE7at_implIN4mpl_10integral_cImLm2EEEEERKNDTcl13store_at_implIXsrT_5valueEEscPSD_LDnEEE9elem_typeESI_
FN:245,247,_ZNK5boost6fusion13vector_detail11vector_dataINSt3__116integer_sequenceImJLm0ELm1ELm2ELm3EEEEJNS_7numeric6odeint6detail5stageIdLm1EEENS9_IdLm2EEENS9_IdLm3EEENS9_IdLm4EEEEE7at_implIN4mpl_4int_ILi0EEEEERKNDTcl13store_at_implIXsrT_5valueEEscPSE_LDnEEE9elem_typeESJ_
FN:245,247,_ZNK5boost6fusion13vector_detail11vector_dataINSt3__116integer_sequenceImJLm0ELm1ELm2ELm3EEEEJNS_7numeric6odeint6detail5stageIdLm1EEENS9_IdLm2EEENS9_IdLm3EEENS9_IdLm4EEEEE7at_implIN4mpl_4int_ILi1EEEEERKNDTcl13store_at_implIXsrT_5valueEEscPSE_LDnEEE9elem_typeESJ_
FN:245,247,_ZNK5boost6fusion13vector_detail11vector_dataINSt3__116integer_sequenceImJLm0ELm1ELm2ELm3EEEEJNS_7numeric6odeint6detail5stageIdLm1EEENS9_IdLm2EEENS9_IdLm3EEENS9_IdLm4EEEEE7at_implIN4mpl_4int_ILi2EEEEERKNDTcl13store_at_implIXsrT_5valueEEscPSE_LDnEEE9elem_typeESJ_
FN:245,247,_ZNK5boost6fusion13vector_detail11vector_dataINSt3__116integer_sequenceImJLm0ELm1ELm2ELm3EEEEJNS_7numeric6odeint6detail5stageIdLm1EEENS9_IdLm2EEENS9_IdLm3EEENS9_IdLm4EEEEE7at_implIN4mpl_4int_ILi3EEEEERKNDTcl13store_at_implIXsrT_5valueEEscPSE_LDnEEE9elem_typeESJ_
FN:265,265,_ZN5boost6fusion6vectorIJNS_7numeric6odeint6detail5stageIdLm1EEENS5_IdLm2EEENS5_IdLm3EEENS5_IdLm4EEEEEC2Ev
FN:280,282,_ZN5boost6fusion6vectorIJNS_7numeric6odeint19rk4_coefficients_a1IdEENS3_19rk4_coefficients_a2IdEENS3_19rk4_coefficients_a3IdEEEEC1IJS5_S7_S9_EvEEDpOT_
FN:280,282,_ZN5boost6fusion6vectorIJNS_7numeric6odeint19rk4_coefficients_a1IdEENS3_19rk4_coefficients_a2IdEENS3_19rk4_coefficients_a3IdEEEEC2IJS5_S7_S9_EvEEDpOT_
FN:293,295,_ZN5boost6fusion6vectorIJKNS_5arrayIdLm1EEEKNS2_IdLm2EEEKNS2_IdLm3EEEEEC1INS1_IJNS_7numeric6odeint19rk4_coefficients_a1IdEENSC_19rk4_coefficients_a2IdEENSC_19rk4_coefficients_a3IdEEEEEvEEOT_
FN:293,295,_ZN5boost6fusion6vectorIJKNS_5arrayIdLm1EEEKNS2_IdLm2EEEKNS2_IdLm3EEEEEC2INS1_IJNS_7numeric6odeint19rk4_coefficients_a1IdEENSC_19rk4_coefficients_a2IdEENSC_19rk4_coefficients_a3IdEEEEEvEEOT_
FNDA:2,_ZN5boost6fusion13vector_detail12forward_at_cILi0ENS0_6vectorIJNS_7numeric6odeint19rk4_coefficients_a1IdEENS5_19rk4_coefficients_a2IdEENS5_19rk4_coefficients_a3IdEEEEEEENS1_9result_of12forward_at_cIT0_XT_EE4typeEOSF_
FNDA:2,_ZN5boost6fusion13vector_detail12forward_at_cILi1ENS0_6vectorIJNS_7numeric6odeint19rk4_coefficients_a1IdEENS5_19rk4_coefficients_a2IdEENS5_19rk4_coefficients_a3IdEEEEEEENS1_9result_of12forward_at_cIT0_XT_EE4typeEOSF_
FNDA:2,_ZN5boost6fusion13vector_detail12forward_at_cILi2ENS0_6vectorIJNS_7numeric6odeint19rk4_coefficients_a1IdEENS5_19rk4_coefficients_a2IdEENS5_19rk4_coefficients_a3IdEEEEEEENS1_9result_of12forward_at_cIT0_XT_EE4typeEOSF_
FNDA:2,_ZN5boost6fusion13vector_detail5storeILm0ENS_7numeric6odeint6detail5stageIdLm1EEEEC2Ev
FNDA:2,_ZN5boost6fusion13vector_detail5storeILm1ENS_7numeric6odeint6detail5stageIdLm2EEEEC2Ev
FNDA:2,_ZN5boost6fusion13vector_detail5storeILm2ENS_7numeric6odeint6detail5stageIdLm3EEEEC2Ev
FNDA:2,_ZN5boost6fusion13vector_detail5storeILm3ENS_7numeric6odeint6detail5stageIdLm4EEEEC2Ev
FNDA:2,_ZN5boost6fusion13vector_detail5storeILm0EKNS_5arrayIdLm1EEEEC2IRNS_7numeric6odeint19rk4_coefficients_a1IdEEvEEOT_
FNDA:2,_ZN5boost6fusion13vector_detail5storeILm0ENS_7numeric6odeint19rk4_coefficients_a1IdEEEC2IS6_vEEOT_
FNDA:2,_ZN5boost6fusion13vector_detail5storeILm1EKNS_5arrayIdLm2EEEEC2IRNS_7numeric6odeint19rk4_coefficients_a2IdEEvEEOT_
FNDA:2,_ZN5boost6fusion13vector_detail5storeILm1ENS_7numeric6odeint19rk4_coefficients_a2IdEEEC2IS6_vEEOT_
FNDA:2,_ZN5boost6fusion13vector_detail5storeILm2EKNS_5arrayIdLm3EEEEC2IRNS_7numeric6odeint19rk4_coefficients_a3IdEEvEEOT_
FNDA:2,_ZN5boost6fusion13vector_detail5storeILm2ENS_7numeric6odeint19rk4_coefficients_a3IdEEEC2IS6_vEEOT_
FNDA:2,_ZN5boost6fusion13vector_detail11vector_dataINSt3__116integer_sequenceImJLm0ELm1ELm2ELm3EEEEJNS_7numeric6odeint6detail5stageIdLm1EEENS9_IdLm2EEENS9_IdLm3EEENS9_IdLm4EEEEEC2Ev
FNDA:2,_ZN5boost6fusion13vector_detail11vector_dataINSt3__116integer_sequenceImJLm0ELm1ELm2EEEEJKNS_5arrayIdLm1EEEKNS6_IdLm2EEEKNS6_IdLm3EEEEEC2INS0_6vectorIJNS_7numeric6odeint19rk4_coefficients_a1IdEENSH_19rk4_coefficients_a2IdEENSH_19rk4_coefficients_a3IdEEEEESO_vEENS1_9each_elemEOT_
FNDA:2,_ZN5boost6fusion13vector_detail11vector_dataINSt3__116integer_sequenceImJLm0ELm1ELm2EEEEJNS_7numeric6odeint19rk4_coefficients_a1IdEENS7_19rk4_coefficients_a2IdEENS7_19rk4_coefficients_a3IdEEEEC2IJS9_SB_SD_EEENS1_9each_elemEDpOT_
FNDA:2,_ZN5boost6fusion13vector_detail11vector_dataINSt3__116integer_sequenceImJLm0ELm1ELm2EEEEJNS_7numeric6odeint19rk4_coefficients_a1IdEENS7_19rk4_coefficients_a2IdEENS7_19rk4_coefficients_a3IdEEEE7at_implIN4mpl_4int_ILi0EEEEERNDTcl13store_at_implIXsrT_5valueEEscPSE_LDnEEE9elem_typeESJ_
FNDA:2,_ZN5boost6fusion13vector_detail11vector_dataINSt3__116integer_sequenceImJLm0ELm1ELm2EEEEJNS_7numeric6odeint19rk4_coefficients_a1IdEENS7_19rk4_coefficients_a2IdEENS7_19rk4_coefficients_a3IdEEEE7at_implIN4mpl_4int_ILi1EEEEERNDTcl13store_at_implIXsrT_5valueEEscPSE_LDnEEE9elem_typeESJ_
FNDA:2,_ZN5boost6fusion13vector_detail11vector_dataINSt3__116integer_sequenceImJLm0ELm1ELm2EEEEJNS_7numeric6odeint19rk4_coefficients_a1IdEENS7_19rk4_coefficients_a2IdEENS7_19rk4_coefficients_a3IdEEEE7at_implIN4mpl_4int_ILi2EEEEERNDTcl13store_at_implIXsrT_5valueEEscPSE_LDnEEE9elem_typeESJ_
FNDA:4,_ZN5boost6fusion13vector_detail11vector_dataINSt3__116integer_sequenceImJLm0ELm1ELm2ELm3EEEEJNS_7numeric6odeint6detail5stageIdLm1EEENS9_IdLm2EEENS9_IdLm3EEENS9_IdLm4EEEEE7at_implIN4mpl_10integral_cImLm0EEEEERNDTcl13store_at_implIXsrT_5valueEEscPSE_LDnEEE9elem_typeESJ_
FNDA:4,_ZN5boost6fusion13vector_detail11vector_dataINSt3__116integer_sequenceImJLm0ELm1ELm2ELm3EEEEJNS_7numeric6odeint6detail5stageIdLm1EEENS9_IdLm2EEENS9_IdLm3EEENS9_IdLm4EEEEE7at_implIN4mpl_10integral_cImLm1EEEEERNDTcl13store_at_implIXsrT_5valueEEscPSE_LDnEEE9elem_typeESJ_
FNDA:4,_ZN5boost6fusion13vector_detail11vector_dataINSt3__116integer_sequenceImJLm0ELm1ELm2ELm3EEEEJNS_7numeric6odeint6detail5stageIdLm1EEENS9_IdLm2EEENS9_IdLm3EEENS9_IdLm4EEEEE7at_implIN4mpl_10integral_cImLm2EEEEERNDTcl13store_at_implIXsrT_5valueEEscPSE_LDnEEE9elem_typeESJ_
FNDA:4,_ZN5boost6fusion13vector_detail11vector_dataINSt3__116integer_sequenceImJLm0ELm1ELm2ELm3EEEEJNS_7numeric6odeint6detail5stageIdLm1EEENS9_IdLm2EEENS9_IdLm3EEENS9_IdLm4EEEEE7at_implIN4mpl_4int_ILi3EEEEERNDTcl13store_at_implIXsrT_5valueEEscPSE_LDnEEE9elem_typeESJ_
FNDA:2,_ZNK5boost6fusion13vector_detail11vector_dataINSt3__116integer_sequenceImJLm0ELm1ELm2EEEEJKNS_5arrayIdLm1EEEKNS6_IdLm2EEEKNS6_IdLm3EEEEE7at_implIN4mpl_10integral_cImLm0EEEEERKNDTcl13store_at_implIXsrT_5valueEEscPSD_LDnEEE9elem_typeESI_
FNDA:2,_ZNK5boost6fusion13vector_detail11vector_dataINSt3__116integer_sequenceImJLm0ELm1ELm2EEEEJKNS_5arrayIdLm1EEEKNS6_IdLm2EEEKNS6_IdLm3EEEEE7at_implIN4mpl_10integral_cImLm1EEEEERKNDTcl13store_at_implIXsrT_5valueEEscPSD_LDnEEE9elem_typeESI_
FNDA:2,_ZNK5boost6fusion13vector_detail11vector_dataINSt3__116integer_sequenceImJLm0ELm1ELm2EEEEJKNS_5arrayIdLm1EEEKNS6_IdLm2EEEKNS6_IdLm3EEEEE7at_implIN4mpl_10integral_cImLm2EEEEERKNDTcl13store_at_implIXsrT_5valueEEscPSD_LDnEEE9elem_typeESI_
FNDA:121,_ZNK5boost6fusion13vector_detail11vector_dataINSt3__116integer_sequenceImJLm0ELm1ELm2ELm3EEEEJNS_7numeric6odeint6detail5stageIdLm1EEENS9_IdLm2EEENS9_IdLm3EEENS9_IdLm4EEEEE7at_implIN4mpl_4int_ILi0EEEEERKNDTcl13store_at_implIXsrT_5valueEEscPSE_LDnEEE9elem_typeESJ_
FNDA:121,_ZNK5boost6fusion13vector_detail11vector_dataINSt3__116integer_sequenceImJLm0ELm1ELm2ELm3EEEEJNS_7numeric6odeint6detail5stageIdLm1EEENS9_IdLm2EEENS9_IdLm3EEENS9_IdLm4EEEEE7at_implIN4mpl_4int_ILi1EEEEERKNDTcl13store_at_implIXsrT_5valueEEscPSE_LDnEEE9elem_typeESJ_
FNDA:121,_ZNK5boost6fusion13vector_detail11vector_dataINSt3__116integer_sequenceImJLm0ELm1ELm2ELm3EEEEJNS_7numeric6odeint6detail5stageIdLm1EEENS9_IdLm2EEENS9_IdLm3EEENS9_IdLm4EEEEE7at_implIN4mpl_4int_ILi2EEEEERKNDTcl13store_at_implIXsrT_5valueEEscPSE_LDnEEE9elem_typeESJ_
FNDA:121,_ZNK5boost6fusion13vector_detail11vector_dataINSt3__116integer_sequenceImJLm0ELm1ELm2ELm3EEEEJNS_7numeric6odeint6detail5stageIdLm1EEENS9_IdLm2EEENS9_IdLm3EEENS9_IdLm4EEEEE7at_implIN4mpl_4int_ILi3EEEEERKNDTcl13store_at_implIXsrT_5valueEEscPSE_LDnEEE9elem_typeESJ_
FNDA:2,_ZN5boost6fusion6vectorIJNS_7numeric6odeint6detail5stageIdLm1EEENS5_IdLm2EEENS5_IdLm3EEENS5_IdLm4EEEEEC2Ev
FNDA:2,_ZN5boost6fusion6vectorIJNS_7numeric6odeint19rk4_coefficients_a1IdEENS3_19rk4_coefficients_a2IdEENS3_19rk4_coefficients_a3IdEEEEC1IJS5_S7_S9_EvEEDpOT_
FNDA:2,_ZN5boost6fusion6vectorIJNS_7numeric6odeint19rk4_coefficients_a1IdEENS3_19rk4_coefficients_a2IdEENS3_19rk4_coefficients_a3IdEEEEC2IJS5_S7_S9_EvEEDpOT_
FNDA:2,_ZN5boost6fusion6vectorIJKNS_5arrayIdLm1EEEKNS2_IdLm2EEEKNS2_IdLm3EEEEEC1INS1_IJNS_7numeric6odeint19rk4_coefficients_a1IdEENSC_19rk4_coefficients_a2IdEENSC_19rk4_coefficients_a3IdEEEEEvEEOT_
FNDA:2,_ZN5boost6fusion6vectorIJKNS_5arrayIdLm1EEEKNS2_IdLm2EEEKNS2_IdLm3EEEEEC2INS1_IJNS_7numeric6odeint19rk4_coefficients_a1IdEENSC_19rk4_coefficients_a2IdEENSC_19rk4_coefficients_a3IdEEEEEvEEOT_
FNF:35
FNH:35
DA:117,6
DA:122,6
DA:130,8
DA:131,8
DA:132,8
DA:167,12
DA:168,12
DA:169,12
DA:196,2
DA:207,2
DA:208,6
DA:209,6
DA:214,2
DA:215,6
DA:216,6
DA:238,22
DA:240,22
DA:245,490
DA:247,490
DA:265,2
DA:280,4
DA:281,2
DA:282,4
DA:293,4
DA:294,2
DA:295,4
LF:26
LH:26
end_of_record
TN:
SF:/opt/homebrew/include/boost/fusion/container/vector/vector_iterator.hpp
FN:46,47,_ZN5boost6fusion15vector_iteratorIKNS_7numeric6odeint6detail20generic_rk_algorithmILm4EdNS3_13array_algebraENS3_18default_operationsEE12stage_vectorELi0EEC1ERSA_
FN:46,47,_ZN5boost6fusion15vector_iteratorIKNS_7numeric6odeint6detail20generic_rk_algorithmILm4EdNS3_13array_algebraENS3_18default_operationsEE12stage_vectorELi0EEC2ERSA_
FN:46,47,_ZN5boost6fusion15vector_iteratorIKNS_7numeric6odeint6detail20generic_rk_algorithmILm4EdNS3_13array_algebraENS3_18default_operationsEE12stage_vectorELi1EEC1ERSA_
FN:46,47,_ZN5boost6fusion15vector_iteratorIKNS_7numeric6odeint6detail20generic_rk_algorithmILm4EdNS3_13array_algebraENS3_18default_operationsEE12stage_vectorELi1EEC2ERSA_
FN:46,47,_ZN5boost6fusion15vector_iteratorIKNS_7numeric6odeint6detail20generic_rk_algorithmILm4EdNS3_13array_algebraENS3_18default_operationsEE12stage_vectorELi2EEC1ERSA_
FN:46,47,_ZN5boost6fusion15vector_iteratorIKNS_7numeric6odeint6detail20generic_rk_algorithmILm4EdNS3_13array_algebraENS3_18default_operationsEE12stage_vectorELi2EEC2ERSA_
FN:46,47,_ZN5boost6fusion15vector_iteratorIKNS_7numeric6odeint6detail20generic_rk_algorithmILm4EdNS3_13array_algebraENS3_18default_operationsEE12stage_vectorELi3EEC1ERSA_
FN:46,47,_ZN5boost6fusion15vector_iteratorIKNS_7numeric6odeint6detail20generic_rk_algorithmILm4EdNS3_13array_algebraENS3_18default_operationsEE12stage_vectorELi3EEC2ERSA_
FN:46,47,_ZN5boost6fusion15vector_iteratorIKNS_7numeric6odeint6detail20generic_rk_algorithmILm4EdNS3_13array_algebraENS3_18default_operationsEE12stage_vectorELi4EEC1ERSA_
FN:46,47,_ZN5boost6fusion15vector_iteratorIKNS_7numeric6odeint6detail20generic_rk_algorithmILm4EdNS3_13array_algebraENS3_18default_operationsEE12stage_vectorELi4EEC2ERSA_
FN:46,47,_ZN5boost6fusion15vector_iteratorINS0_6vectorIJNS_7numeric6odeint19rk4_coefficients_a1IdEENS4_19rk4_coefficients_a2IdEENS4_19rk4_coefficients_a3IdEEEEELi0EEC1ERSB_
FN:46,47,_ZN5boost6fusion15vector_iteratorINS0_6vectorIJNS_7numeric6odeint19rk4_coefficients_a1IdEENS4_19rk4_coefficients_a2IdEENS4_19rk4_coefficients_a3IdEEEEELi0EEC2ERSB_
FN:46,47,_ZN5boost6fusion15vector_iteratorINS0_6vectorIJNS_7numeric6odeint19rk4_coefficients_a1IdEENS4_19rk4_coefficients_a2IdEENS4_19rk4_coefficients_a3IdEEEEELi1EEC1ERSB_
FN:46,47,_ZN5boost6fusion15vector_iteratorINS0_6vectorIJNS_7numeric6odeint19rk4_coefficients_a1IdEENS4_19rk4_coefficients_a2IdEENS4_19rk4_coefficients_a3IdEEEEELi1EEC2ERSB_
FN:46,47,_ZN5boost6fusion15vector_iteratorINS0_6vectorIJNS_7numeric6odeint19rk4_coefficients_a1IdEENS4_19rk4_coefficients_a2IdEENS4_19rk4_coefficients_a3IdEEEEELi2EEC1ERSB_
FN:46,47,_ZN5boost6fusion15vector_iteratorINS0_6vectorIJNS_7numeric6odeint19rk4_coefficients_a1IdEENS4_19rk4_coefficients_a2IdEENS4_19rk4_coefficients_a3IdEEEEELi2EEC2ERSB_
FNDA:121,_ZN5boost6fusion15vector_iteratorIKNS_7numeric6odeint6detail20generic_rk_algorithmILm4EdNS3_13array_algebraENS3_18default_operationsEE12stage_vectorELi0EEC1ERSA_
FNDA:121,_ZN5boost6fusion15vector_iteratorIKNS_7numeric6odeint6detail20generic_rk_algorithmILm4EdNS3_13array_algebraENS3_18default_operationsEE12stage_vectorELi0EEC2ERSA_
FNDA:121,_ZN5boost6fusion15vector_iteratorIKNS_7numeric6odeint6detail20generic_rk_algorithmILm4EdNS3_13array_algebraENS3_18default_operationsEE12stage_vectorELi1EEC1ERSA_
FNDA:121,_ZN5boost6fusion15vector_iteratorIKNS_7numeric6odeint6detail20generic_rk_algorithmILm4EdNS3_13array_algebraENS3_18default_operationsEE12stage_vectorELi1EEC2ERSA_
FNDA:121,_ZN5boost6fusion15vector_iteratorIKNS_7numeric6odeint6detail20generic_rk_algorithmILm4EdNS3_13array_algebraENS3_18default_operationsEE12stage_vectorELi2EEC1ERSA_
FNDA:121,_ZN5boost6fusion15vector_iteratorIKNS_7numeric6odeint6detail20generic_rk_algorithmILm4EdNS3_13array_algebraENS3_18default_operationsEE12stage_vectorELi2EEC2ERSA_
FNDA:121,_ZN5boost6fusion15vector_iteratorIKNS_7numeric6odeint6detail20generic_rk_algorithmILm4EdNS3_13array_algebraENS3_18default_operationsEE12stage_vectorELi3EEC1ERSA_
FNDA:121,_ZN5boost6fusion15vector_iteratorIKNS_7numeric6odeint6detail20generic_rk_algorithmILm4EdNS3_13array_algebraENS3_18default_operationsEE12stage_vectorELi3EEC2ERSA_
FNDA:121,_ZN5boost6fusion15vector_iteratorIKNS_7numeric6odeint6detail20generic_rk_algorithmILm4EdNS3_13array_algebraENS3_18default_operationsEE12stage_vectorELi4EEC1ERSA_
FNDA:121,_ZN5boost6fusion15vector_iteratorIKNS_7numeric6odeint6detail20generic_rk_algorithmILm4EdNS3_13array_algebraENS3_18default_operationsEE12stage_vectorELi4EEC2ERSA_
FNDA:8,_ZN5boost6fusion15vector_iteratorINS0_6vectorIJNS_7numeric6odeint19rk4_coefficients_a1IdEENS4_19rk4_coefficients_a2IdEENS4_19rk4_coefficients_a3IdEEEEELi0EEC1ERSB_
FNDA:8,_ZN5boost6fusion15vector_iteratorINS0_6vectorIJNS_7numeric6odeint19rk4_coefficients_a1IdEENS4_19rk4_coefficients_a2IdEENS4_19rk4_coefficients_a3IdEEEEELi0EEC2ERSB_
FNDA:2,_ZN5boost6fusion15vector_iteratorINS0_6vectorIJNS_7numeric6odeint19rk4_coefficients_a1IdEENS4_19rk4_coefficients_a2IdEENS4_19rk4_coefficients_a3IdEEEEELi1EEC1ERSB_
FNDA:2,_ZN5boost6fusion15vector_iteratorINS0_6vectorIJNS_7numeric6odeint19rk4_coefficients_a1IdEENS4_19rk4_coefficients_a2IdEENS4_19rk4_coefficients_a3IdEEEEELi1EEC2ERSB_
FNDA:2,_ZN5boost6fusion15vector_iteratorINS0_6vectorIJNS_7numeric6odeint19rk4_coefficients_a1IdEENS4_19rk4_coefficients_a2IdEENS4_19rk4_coefficients_a3IdEEEEELi2EEC1ERSB_
FNDA:2,_ZN5boost6fusion15vector_iteratorINS0_6vectorIJNS_7numeric6odeint19rk4_coefficients_a1IdEENS4_19rk4_coefficients_a2IdEENS4_19rk4_coefficients_a3IdEEEEELi2EEC2ERSB_
FNF:16
FNH:16
DA:46,1234
DA:47,1234
LF:2
LH:2
end_of_record
TN:
SF:/opt/homebrew/include/boost/fusion/iterator/advance.hpp
FN:80,82,_ZN5boost6fusion9advance_cILi0ENS0_15vector_iteratorINS0_6vectorIJNS_7numeric6odeint19rk4_coefficients_a1IdEENS5_19rk4_coefficients_a2IdEENS5_19rk4_coefficients_a3IdEEEEELi0EEEEEKNS0_9result_of9advance_cIT0_XT_EE4typeERKSG_
FN:80,82,_ZN5boost6fusion9advance_cILi1ENS0_15vector_iteratorINS0_6vectorIJNS_7numeric6odeint19rk4_coefficients_a1IdEENS5_19rk4_coefficients_a2IdEENS5_19rk4_coefficients_a3IdEEEEELi0EEEEEKNS0_9result_of9advance_cIT0_XT_EE4typeERKSG_
FN:80,82,_ZN5boost6fusion9advance_cILi2ENS0_15vector_iteratorINS0_6vectorIJNS_7numeric6odeint19rk4_coefficients_a1IdEENS5_19rk4_coefficients_a2IdEENS5_19rk4_coefficients_a3IdEEEEELi0EEEEEKNS0_9result_of9advance_cIT0_XT_EE4typeERKSG_
FNDA:2,_ZN5boost6fusion9advance_cILi0ENS0_15vector_iteratorINS0_6vectorIJNS_7numeric6odeint19rk4_coefficients_a1IdEENS5_19rk4_coefficients_a2IdEENS5_19rk4_coefficients_a3IdEEEEELi0EEEEEKNS0_9result_of9advance_cIT0_XT_EE4typeERKSG_
FNDA:2,_ZN5boost6fusion9advance_cILi1ENS0_15vector_iteratorINS0_6vectorIJNS_7numeric6odeint19rk4_coefficients_a1IdEENS5_19rk4_coefficients_a2IdEENS5_19rk4_coefficients_a3IdEEEEELi0EEEEEKNS0_9result_of9advance_cIT0_XT_EE4typeERKSG_
FNDA:2,_ZN5boost6fusion9advance_cILi2ENS0_15vector_iteratorINS0_6vectorIJNS_7numeric6odeint19rk4_coefficients_a1IdEENS5_19rk4_coefficients_a2IdEENS5_19rk4_coefficients_a3IdEEEEELi0EEEEEKNS0_9result_of9advance_cIT0_XT_EE4typeERKSG_
FNF:3
FNH:3
DA:80,6
DA:82,6
LF:2
LH:2
end_of_record
TN:
SF:/opt/homebrew/include/boost/fusion/iterator/deref.hpp
FN:60,63,_ZN5boost6fusion5derefINS0_15vector_iteratorIKNS_7numeric6odeint6detail20generic_rk_algorithmILm4EdNS4_13array_algebraENS4_18default_operationsEE12stage_vectorELi0EEEEENS0_9result_of5derefIT_E4typeERKSF_
FN:60,63,_ZN5boost6fusion5derefINS0_15vector_iteratorIKNS_7numeric6odeint6detail20generic_rk_algorithmILm4EdNS4_13array_algebraENS4_18default_operationsEE12stage_vectorELi1EEEEENS0_9result_of5derefIT_E4typeERKSF_
FN:60,63,_ZN5boost6fusion5derefINS0_15vector_iteratorIKNS_7numeric6odeint6detail20generic_rk_algorithmILm4EdNS4_13array_algebraENS4_18default_operationsEE12stage_vectorELi2EEEEENS0_9result_of5derefIT_E4typeERKSF_
FN:60,63,_ZN5boost6fusion5derefINS0_15vector_iteratorIKNS_7numeric6odeint6detail20generic_rk_algorithmILm4EdNS4_13array_algebraENS4_18default_operationsEE12stage_vectorELi3EEEEENS0_9result_of5derefIT_E4typeERKSF_
FN:60,63,_ZN5boost6fusion5derefINS0_15vector_iteratorINS0_6vectorIJNS_7numeric6odeint19rk4_coefficients_a1IdEENS5_19rk4_coefficients_a2IdEENS5_19rk4_coefficients_a3IdEEEEELi0EEEEENS0_9result_of5derefIT_E4typeERKSG_
FN:60,63,_ZN5boost6fusion5derefINS0_15vector_iteratorINS0_6vectorIJNS_7numeric6odeint19rk4_coefficients_a1IdEENS5_19rk4_coefficients_a2IdEENS5_19rk4_coefficients_a3IdEEEEELi1EEEEENS0_9result_of5derefIT_E4typeERKSG_
FN:60,63,_ZN5boost6fusion5derefINS0_15vector_iteratorINS0_6vectorIJNS_7numeric6odeint19rk4_coefficients_a1IdEENS5_19rk4_coefficients_a2IdEENS5_19rk4_coefficients_a3IdEEEEELi2EEEEENS0_9result_of5derefIT_E4typeERKSG_
FN:69,71,_ZN5boost6fusiondeINS0_15vector_iteratorIKNS_7numeric6odeint6detail20generic_rk_algorithmILm4EdNS4_13array_algebraENS4_18default_operationsEE12stage_vectorELi0EEEEENS0_9result_of5derefIT_E4typeERKNS0_13iterator_baseISF_EE
FN:69,71,_ZN5boost6fusiondeINS0_15vector_iteratorIKNS_7numeric6odeint6detail20generic_rk_algorithmILm4EdNS4_13array_algebraENS4_18default_operationsEE12stage_vectorELi1EEEEENS0_9result_of5derefIT_E4typeERKNS0_13iterator_baseISF_EE
FN:69,71,_ZN5boost6fusiondeINS0_15vector_iteratorIKNS_7numeric6odeint6detail20generic_rk_algorithmILm4EdNS4_13array_algebraENS4_18default_operationsEE12stage_vectorELi2EEEEENS0_9result_of5derefIT_E4typeERKNS0_13iterator_baseISF_EE
FN:69,71,_ZN5boost6fusiondeINS0_15vector_iteratorIKNS_7numeric6odeint6detail20generic_rk_algorithmILm4EdNS4_13array_algebraENS4_18default_operationsEE12stage_vectorELi3EEEEENS0_9result_of5derefIT_E4typeERKNS0_13iterator_baseISF_EE
FN:69,71,_ZN5boost6fusiondeINS0_15vector_iteratorINS0_6vectorIJNS_7numeric6odeint19rk4_coefficients_a1IdEENS5_19rk4_coefficients_a2IdEENS5_19rk4_coefficients_a3IdEEEEELi0EEEEENS0_9result_of5derefIT_E4typeERKNS0_13iterator_baseISG_EE
FN:69,71,_ZN5boost6fusiondeINS0_15vector_iteratorINS0_6vectorIJNS_7numeric6odeint19rk4_coefficients_a1IdEENS5_19rk4_coefficients_a2IdEENS5_19rk4_coefficients_a3IdEEEEELi1EEEEENS0_9result_of5derefIT_E4typeERKNS0_13iterator_baseISG_EE
FN:69,71,_ZN5boost6fusiondeINS0_15vector_iteratorINS0_6vectorIJNS_7numeric6odeint19rk4_coefficients_a1IdEENS5_19rk4_coefficients_a2IdEENS5_19rk4_coefficients_a3IdEEEEELi2EEEEENS0_9result_of5derefIT_E4typeERKNS0_13iterator_baseISG_EE
FNDA:121,_ZN5boost6fusion5derefINS0_15vector_iteratorIKNS_7numeric6odeint6detail20generic_rk_algorithmILm4EdNS4_13array_algebraENS4_18default_operationsEE12stage_vectorELi0EEEEENS0_9result_of5derefIT_E4typeERKSF_
FNDA:121,_ZN5boost6fusion5derefINS0_15vector_iteratorIKNS_7numeric6odeint6detail20generic_rk_algorithmILm4EdNS4_13array_algebraENS4_18default_operationsEE12stage_vectorELi1EEEEENS0_9result_of5derefIT_E4typeERKSF_
FNDA:121,_ZN5boost6fusion5derefINS0_15vector_iteratorIKNS_7numeric6odeint6detail20generic_rk_algorithmILm4EdNS4_13array_algebraENS4_18default_operationsEE12stage_vectorELi2EEEEENS0_9result_of5derefIT_E4typeERKSF_
FNDA:121,_ZN5boost6fusion5derefINS0_15vector_iteratorIKNS_7numeric6odeint6detail20generic_rk_algorithmILm4EdNS4_13array_algebraENS4_18default_operationsEE12stage_vectorELi3EEEEENS0_9result_of5derefIT_E4typeERKSF_
FNDA:2,_ZN5boost6fusion5derefINS0_15vector_iteratorINS0_6vectorIJNS_7numeric6odeint19rk4_coefficients_a1IdEENS5_19rk4_coefficients_a2IdEENS5_19rk4_coefficients_a3IdEEEEELi0EEEEENS0_9result_of5derefIT_E4typeERKSG_
FNDA:2,_ZN5boost6fusion5derefINS0_15vector_iteratorINS0_6vectorIJNS_7numeric6odeint19rk4_coefficients_a1IdEENS5_19rk4_coefficients_a2IdEENS5_19rk4_coefficients_a3IdEEEEELi1EEEEENS0_9result_of5derefIT_E4typeERKSG_
FNDA:2,_ZN5boost6fusion5derefINS0_15vector_iteratorINS0_6vectorIJNS_7numeric6odeint19rk4_coefficients_a1IdEENS5_19rk4_coefficients_a2IdEENS5_19rk4_coefficients_a3IdEEEEELi2EEEEENS0_9result_of5derefIT_E4typeERKSG_
FNDA:121,_ZN5boost6fusiondeINS0_15vector_iteratorIKNS_7numeric6odeint6detail20generic_rk_algorithmILm4EdNS4_13array_algebraENS4_18default_operationsEE12stage_vectorELi0EEEEENS0_9result_of5derefIT_E4typeERKNS0_13iterator_baseISF_EE
FNDA:121,_ZN5boost6fusiondeINS0_15vector_iteratorIKNS_7numeric6odeint6detail20generic_rk_algorithmILm4EdNS4_13array_algebraENS4_18default_operationsEE12stage_vectorELi1EEEEENS0_9result_of5derefIT_E4typeERKNS0_13iterator_baseISF_EE
FNDA:121,_ZN5boost6fusiondeINS0_15vector_iteratorIKNS_7numeric6odeint6detail20generic_rk_algorithmILm4EdNS4_13array_algebraENS4_18default_operationsEE12stage_vectorELi2EEEEENS0_9result_of5derefIT_E4typeERKNS0_13iterator_baseISF_EE
FNDA:121,_ZN5boost6fusiondeINS0_15vector_iteratorIKNS_7numeric6odeint6detail20generic_rk_algorithmILm4EdNS4_13array_algebraENS4_18default_operationsEE12stage_vectorELi3EEEEENS0_9result_of5derefIT_E4typeERKNS0_13iterator_baseISF_EE
FNDA:2,_ZN5boost6fusiondeINS0_15vector_iteratorINS0_6vectorIJNS_7numeric6odeint19rk4_coefficients_a1IdEENS5_19rk4_coefficients_a2IdEENS5_19rk4_coefficients_a3IdEEEEELi0EEEEENS0_9result_of5derefIT_E4typeERKNS0_13iterator_baseISG_EE
FNDA:2,_ZN5boost6fusiondeINS0_15vector_iteratorINS0_6vectorIJNS_7numeric6odeint19rk4_coefficients_a1IdEENS5_19rk4_coefficients_a2IdEENS5_19rk4_coefficients_a3IdEEEEELi1EEEEENS0_9result_of5derefIT_E4typeERKNS0_13iterator_baseISG_EE
FNDA:2,_ZN5boost6fusiondeINS0_15vector_iteratorINS0_6vectorIJNS_7numeric6odeint19rk4_coefficients_a1IdEENS5_19rk4_coefficients_a2IdEENS5_19rk4_coefficients_a3IdEEEEELi2EEEEENS0_9result_of5derefIT_E4typeERKNS0_13iterator_baseISG_EE
FNF:14
FNH:14
DA:60,490
DA:63,490
DA:69,490
DA:71,490
LF:4
LH:4
end_of_record
TN:
SF:/opt/homebrew/include/boost/fusion/iterator/next.hpp
FN:59,61,_ZN5boost6fusion4nextINS0_15vector_iteratorIKNS_7numeric6odeint6detail20generic_rk_algorithmILm4EdNS4_13array_algebraENS4_18default_operationsEE12stage_vectorELi0EEEEEKNS0_9result_of4nextIT_E4typeERKSF_
FN:59,61,_ZN5boost6fusion4nextINS0_15vector_iteratorIKNS_7numeric6odeint6detail20generic_rk_algorithmILm4EdNS4_13array_algebraENS4_18default_operationsEE12stage_vectorELi1EEEEEKNS0_9result_of4nextIT_E4typeERKSF_
FN:59,61,_ZN5boost6fusion4nextINS0_15vector_iteratorIKNS_7numeric6odeint6detail20generic_rk_algorithmILm4EdNS4_13array_algebraENS4_18default_operationsEE12stage_vectorELi2EEEEEKNS0_9result_of4nextIT_E4typeERKSF_
FN:59,61,_ZN5boost6fusion4nextINS0_15vector_iteratorIKNS_7numeric6odeint6detail20generic_rk_algorithmILm4EdNS4_13array_algebraENS4_18default_operationsEE12stage_vectorELi3EEEEEKNS0_9result_of4nextIT_E4typeERKSF_
FNDA:121,_ZN5boost6fusion4nextINS0_15vector_iteratorIKNS_7numeric6odeint6detail20generic_rk_algorithmILm4EdNS4_13array_algebraENS4_18default_operationsEE12stage_vectorELi0EEEEEKNS0_9result_of4nextIT_E4typeERKSF_
FNDA:121,_ZN5boost6fusion4nextINS0_15vector_iteratorIKNS_7numeric6odeint6detail20generic_rk_algorithmILm4EdNS4_13array_algebraENS4_18default_operationsEE12stage_vectorELi1EEEEEKNS0_9result_of4nextIT_E4typeERKSF_
FNDA:121,_ZN5boost6fusion4nextINS0_15vector_iteratorIKNS_7numeric6odeint6detail20generic_rk_algorithmILm4EdNS4_13array_algebraENS4_18default_operationsEE12stage_vectorELi2EEEEEKNS0_9result_of4nextIT_E4typeERKSF_
FNDA:121,_ZN5boost6fusion4nextINS0_15vector_iteratorIKNS_7numeric6odeint6detail20generic_rk_algorithmILm4EdNS4_13array_algebraENS4_18default_operationsEE12stage_vectorELi3EEEEEKNS0_9result_of4nextIT_E4typeERKSF_
FNF:4
FNH:4
DA:59,484
DA:61,484
LF:2
LH:2
end_of_record
TN:
SF:/opt/homebrew/include/boost/fusion/sequence/intrinsic/at.hpp
FN:107,109,_ZN5boost6fusion2atIN4mpl_10integral_cImLm0EEENS0_6vectorIJKNS_5arrayIdLm1EEEKNS6_IdLm2EEEKNS6_IdLm3EEEEEEEENS0_9result_of2atIKT0_T_E4typeERSH_
FN:107,109,_ZN5boost6fusion2atIN4mpl_10integral_cImLm1EEENS0_6vectorIJKNS_5arrayIdLm1EEEKNS6_IdLm2EEEKNS6_IdLm3EEEEEEEENS0_9result_of2atIKT0_T_E4typeERSH_
FN:107,109,_ZN5boost6fusion2atIN4mpl_10integral_cImLm2EEENS0_6vectorIJKNS_5arrayIdLm1EEEKNS6_IdLm2EEEKNS6_IdLm3EEEEEEEENS0_9result_of2atIKT0_T_E4typeERSH_
FN:119,121,_ZN5boost6fusion4at_cILi3ENS_7numeric6odeint6detail20generic_rk_algorithmILm4EdNS3_13array_algebraENS3_18default_operationsEE12stage_vectorEEENS_15lazy_disable_ifINS_8is_constIT0_EENS0_9result_of4at_cISC_XT_EEEE4typeERSC_
FN:99,101,_ZN5boost6fusion2atIN4mpl_10integral_cImLm0EEENS0_6vectorIJNS_7numeric6odeint6detail5stageIdLm1EEENS9_IdLm2EEENS9_IdLm3EEENS9_IdLm4EEEEEEEENS_15lazy_disable_ifINS_8is_constIT0_EENS0_9result_of2atISH_T_EEE4typeERSH_
FN:99,101,_ZN5boost6fusion2atIN4mpl_10integral_cImLm1EEENS0_6vectorIJNS_7numeric6odeint6detail5stageIdLm1EEENS9_IdLm2EEENS9_IdLm3EEENS9_IdLm4EEEEEEEENS_15lazy_disable_ifINS_8is_constIT0_EENS0_9result_of2atISH_T_EEE4typeERSH_
FN:99,101,_ZN5boost6fusion2atIN4mpl_10integral_cImLm2EEENS0_6vectorIJNS_7numeric6odeint6detail5stageIdLm1EEENS9_IdLm2EEENS9_IdLm3EEENS9_IdLm4EEEEEEEENS_15lazy_disable_ifINS_8is_constIT0_EENS0_9result_of2atISH_T_EEE4typeERSH_
FNDA:2,_ZN5boost6fusion2atIN4mpl_10integral_cImLm0EEENS0_6vectorIJKNS_5arrayIdLm1EEEKNS6_IdLm2EEEKNS6_IdLm3EEEEEEEENS0_9result_of2atIKT0_T_E4typeERSH_
FNDA:2,_ZN5boost6fusion2atIN4mpl_10integral_cImLm1EEENS0_6vectorIJKNS_5arrayIdLm1EEEKNS6_IdLm2EEEKNS6_IdLm3EEEEEEEENS0_9result_of2atIKT0_T_E4typeERSH_
FNDA:2,_ZN5boost6fusion2atIN4mpl_10integral_cImLm2EEENS0_6vectorIJKNS_5arrayIdLm1EEEKNS6_IdLm2EEEKNS6_IdLm3EEEEEEEENS0_9result_of2atIKT0_T_E4typeERSH_
FNDA:4,_ZN5boost6fusion4at_cILi3ENS_7numeric6odeint6detail20generic_rk_algorithmILm4EdNS3_13array_algebraENS3_18default_operationsEE12stage_vectorEEENS_15lazy_disable_ifINS_8is_constIT0_EENS0_9result_of4at_cISC_XT_EEEE4typeERSC_
FNDA:4,_ZN5boost6fusion2atIN4mpl_10integral_cImLm0EEENS0_6vectorIJNS_7numeric6odeint6detail5stageIdLm1EEENS9_IdLm2EEENS9_IdLm3EEENS9_IdLm4EEEEEEEENS_15lazy_disable_ifINS_8is_constIT0_EENS0_9result_of2atISH_T_EEE4typeERSH_
FNDA:4,_ZN5boost6fusion2atIN4mpl_10integral_cImLm1EEENS0_6vectorIJNS_7numeric6odeint6detail5stageIdLm1EEENS9_IdLm2EEENS9_IdLm3EEENS9_IdLm4EEEEEEEENS_15lazy_disable_ifINS_8is_constIT0_EENS0_9result_of2atISH_T_EEE4typeERSH_
FNDA:4,_ZN5boost6fusion2atIN4mpl_10integral_cImLm2EEENS0_6vectorIJNS_7numeric6odeint6detail5stageIdLm1EEENS9_IdLm2EEENS9_IdLm3EEENS9_IdLm4EEEEEEEENS_15lazy_disable_ifINS_8is_constIT0_EENS0_9result_of2atISH_T_EEE4typeERSH_
FNF:7
FNH:7
DA:99,12
DA:101,12
DA:107,6
DA:109,6
DA:119,4
DA:121,4
LF:6
LH:6
end_of_record
TN:
SF:/opt/homebrew/include/boost/fusion/sequence/intrinsic/begin.hpp
FN:80,82,_ZN5boost6fusion5beginINS0_6vectorIJNS_7numeric6odeint19rk4_coefficients_a1IdEENS4_19rk4_coefficients_a2IdEENS4_19rk4_coefficients_a3IdEEEEEEEKNS_14lazy_enable_ifINS0_6traits11is_sequenceIT_EENS0_9result_of5beginISF_EEE4typeERSF_
FN:92,94,_ZN5boost6fusion5beginINS_7numeric6odeint6detail20generic_rk_algorithmILm4EdNS3_13array_algebraENS3_18default_operationsEE12stage_vectorEEEKNS_14lazy_enable_ifINS0_6traits11is_sequenceIT_EENS0_9result_of5beginIKSD_EEE4typeERSH_
FNDA:6,_ZN5boost6fusion5beginINS0_6vectorIJNS_7numeric6odeint19rk4_coefficients_a1IdEENS4_19rk4_coefficients_a2IdEENS4_19rk4_coefficients_a3IdEEEEEEEKNS_14lazy_enable_ifINS0_6traits11is_sequenceIT_EENS0_9result_of5beginISF_EEE4typeERSF_
FNDA:121,_ZN5boost6fusion5beginINS_7numeric6odeint6detail20generic_rk_algorithmILm4EdNS3_13array_algebraENS3_18default_operationsEE12stage_vectorEEEKNS_14lazy_enable_ifINS0_6traits11is_sequenceIT_EENS0_9result_of5beginIKSD_EEE4typeERSH_
FNF:2
FNH:2
DA:80,6
DA:82,6
DA:92,121
DA:94,121
LF:4
LH:4
end_of_record
TN:
SF:/opt/homebrew/include/boost/fusion/support/iterator_base.hpp
FN:22,24,_ZNK5boost6fusion13iterator_baseINS0_15vector_iteratorIKNS_7numeric6odeint6detail20generic_rk_algorithmILm4EdNS4_13array_algebraENS4_18default_operationsEE12stage_vectorELi0EEEE4castEv
FN:22,24,_ZNK5boost6fusion13iterator_baseINS0_15vector_iteratorIKNS_7numeric6odeint6detail20generic_rk_algorithmILm4EdNS4_13array_algebraENS4_18default_operationsEE12stage_vectorELi1EEEE4castEv
FN:22,24,_ZNK5boost6fusion13iterator_baseINS0_15vector_iteratorIKNS_7numeric6odeint6detail20generic_rk_algorithmILm4EdNS4_13array_algebraENS4_18default_operationsEE12stage_vectorELi2EEEE4castEv
FN:22,24,_ZNK5boost6fusion13iterator_baseINS0_15vector_iteratorIKNS_7numeric6odeint6detail20generic_rk_algorithmILm4EdNS4_13array_algebraENS4_18default_operationsEE12stage_vectorELi3EEEE4castEv
FN:22,24,_ZNK5boost6fusion13iterator_baseINS0_15vector_iteratorINS0_6vectorIJNS_7numeric6odeint19rk4_coefficients_a1IdEENS5_19rk4_coefficients_a2IdEENS5_19rk4_coefficients_a3IdEEEEELi0EEEE4castEv
FN:22,24,_ZNK5boost6fusion13iterator_baseINS0_15vector_iteratorINS0_6vectorIJNS_7numeric6odeint19rk4_coefficients_a1IdEENS5_19rk4_coefficients_a2IdEENS5_19rk4_coefficients_a3IdEEEEELi1EEEE4castEv
FN:22,24,_ZNK5boost6fusion13iterator_baseINS0_15vector_iteratorINS0_6vectorIJNS_7numeric6odeint19rk4_coefficients_a1IdEENS5_19rk4_coefficients_a2IdEENS5_19rk4_coefficients_a3IdEEEEELi2EEEE4castEv
FNDA:121,_ZNK5boost6fusion13iterator_baseINS0_15vector_iteratorIKNS_7numeric6odeint6detail20generic_rk_algorithmILm4EdNS4_13array_algebraENS4_18default_operationsEE12stage_vectorELi0EEEE4castEv
FNDA:121,_ZNK5boost6fusion13iterator_baseINS0_15vector_iteratorIKNS_7numeric6odeint6detail20generic_rk_algorithmILm4EdNS4_13array_algebraENS4_18default_operationsEE12stage_vectorELi1EEEE4castEv
FNDA:121,_ZNK5boost6fusion13iterator_baseINS0_15vector_iteratorIKNS_7numeric6odeint6detail20generic_rk_algorithmILm4EdNS4_13array_algebraENS4_18default_operationsEE12stage_vectorELi2EEEE4castEv
FNDA:121,_ZNK5boost6fusion13iterator_baseINS0_15vector_iteratorIKNS_7numeric6odeint6detail20generic_rk_algorithmILm4EdNS4_13array_algebraENS4_18default_operationsEE12stage_vectorELi3EEEE4castEv
FNDA:2,_ZNK5boost6fusion13iterator_baseINS0_15vector_iteratorINS0_6vectorIJNS_7numeric6odeint19rk4_coefficients_a1IdEENS5_19rk4_coefficients_a2IdEENS5_19rk4_coefficients_a3IdEEEEELi0EEEE4castEv
FNDA:2,_ZNK5boost6fusion13iterator_baseINS0_15vector_iteratorINS0_6vectorIJNS_7numeric6odeint19rk4_coefficients_a1IdEENS5_19rk4_coefficients_a2IdEENS5_19rk4_coefficients_a3IdEEEEELi1EEEE4castEv
FNDA:2,_ZNK5boost6fusion13iterator_baseINS0_15vector_iteratorINS0_6vectorIJNS_7numeric6odeint19rk4_coefficients_a1IdEENS5_19rk4_coefficients_a2IdEENS5_19rk4_coefficients_a3IdEEEEELi2EEEE4castEv
FNF:7
FNH:7
DA:22,490
DA:24,490
LF:2
LH:2
end_of_record
TN:
SF:/opt/homebrew/include/boost/mpl/aux_/unwrap.hpp
FN:26,28,_ZN5boost3mpl3aux6unwrapINS_7numeric6odeint6detail20generic_rk_algorithmILm4EdNS4_13array_algebraENS4_18default_operationsEE12stage_vector12do_insertionEEERT_SD_l
FNDA:6,_ZN5boost3mpl3aux6unwrapINS_7numeric6odeint6detail20generic_rk_algorithmILm4EdNS4_13array_algebraENS4_18default_operationsEE12stage_vector12do_insertionEEERT_SD_l
FNF:1
FNH:1
DA:26,6
DA:28,6
LF:2
LH:2
end_of_record
TN:
SF:/opt/homebrew/include/boost/mpl/for_each.hpp
FN:114,119,_ZN5boost3mpl8for_eachINS0_7range_cImLm0ELm3EEENS_7numeric6odeint6detail20generic_rk_algorithmILm4EdNS5_13array_algebraENS5_18default_operationsEE12stage_vector12do_insertionEEEvT0_PT_
FN:45,52,_ZN5boost3mpl3aux13for_each_implILb1EE7executeINS0_6r_iterIN4mpl_10integral_cImLm3EEEEES9_NS0_8identityINS6_2naEEENS_7numeric6odeint6detail20generic_rk_algorithmILm4EdNSE_13array_algebraENSE_18default_operationsEE12stage_vector12do_insertionEEEvPT_PT0_PT1_T2_
FN:65,83,_ZN5boost3mpl3aux13for_each_implILb0EE7executeINS0_6r_iterIN4mpl_10integral_cImLm0EEEEENS5_INS7_ImLm3EEEEENS0_8identityINS6_2naEEENS_7numeric6odeint6detail20generic_rk_algorithmILm4EdNSG_13array_algebraENSG_18default_operationsEE12stage_vector12do_insertionEEEvPT_PT0_PT1_T2_
FN:65,83,_ZN5boost3mpl3aux13for_each_implILb0EE7executeINS0_6r_iterIN4mpl_10integral_cImLm1EEEEENS5_INS7_ImLm3EEEEENS0_8identityINS6_2naEEENS_7numeric6odeint6detail20generic_rk_algorithmILm4EdNSG_13array_algebraENSG_18default_operationsEE12stage_vector12do_insertionEEEvPT_PT0_PT1_T2_
FN:65,83,_ZN5boost3mpl3aux13for_each_implILb0EE7executeINS0_6r_iterIN4mpl_10integral_cImLm2EEEEENS5_INS7_ImLm3EEEEENS0_8identityINS6_2naEEENS_7numeric6odeint6detail20generic_rk_algorithmILm4EdNSG_13array_algebraENSG_18default_operationsEE12stage_vector12do_insertionEEEvPT_PT0_PT1_T2_
FN:97,106,_ZN5boost3mpl8for_eachINS0_7range_cImLm0ELm3EEENS0_8identityIN4mpl_2naEEENS_7numeric6odeint6detail20generic_rk_algorithmILm4EdNS9_13array_algebraENS9_18default_operationsEE12stage_vector12do_insertionEEEvT1_PT_PT0_
FNDA:2,_ZN5boost3mpl8for_eachINS0_7range_cImLm0ELm3EEENS_7numeric6odeint6detail20generic_rk_algorithmILm4EdNS5_13array_algebraENS5_18default_operationsEE12stage_vector12do_insertionEEEvT0_PT_
FNDA:2,_ZN5boost3mpl3aux13for_each_implILb1EE7executeINS0_6r_iterIN4mpl_10integral_cImLm3EEEEES9_NS0_8identityINS6_2naEEENS_7numeric6odeint6detail20generic_rk_algorithmILm4EdNSE_13array_algebraENSE_18default_operationsEE12stage_vector12do_insertionEEEvPT_PT0_PT1_T2_
FNDA:2,_ZN5boost3mpl3aux13for_each_implILb0EE7executeINS0_6r_iterIN4mpl_10integral_cImLm0EEEEENS5_INS7_ImLm3EEEEENS0_8identityINS6_2naEEENS_7numeric6odeint6detail20generic_rk_algorithmILm4EdNSG_13array_algebraENSG_18default_operationsEE12stage_vector12do_insertionEEEvPT_PT0_PT1_T2_
FNDA:2,_ZN5boost3mpl3aux13for_each_implILb0EE7executeINS0_6r_iterIN4mpl_10integral_cImLm1EEEEENS5_INS7_ImLm3EEEEENS0_8identityINS6_2naEEENS_7numeric6odeint6detail20generic_rk_algorithmILm4EdNSG_13array_algebraENSG_18default_operationsEE12stage_vector12do_insertionEEEvPT_PT0_PT1_T2_
FNDA:2,_ZN5boost3mpl3aux13for_each_implILb0EE7executeINS0_6r_iterIN4mpl_10integral_cImLm2EEEEENS5_INS7_ImLm3EEEEENS0_8identityINS6_2naEEENS_7numeric6odeint6detail20generic_rk_algorithmILm4EdNSG_13array_algebraENSG_18default_operationsEE12stage_vector12do_insertionEEEvPT_PT0_PT1_T2_
FNDA:2,_ZN5boost3mpl8for_eachINS0_7range_cImLm0ELm3EEENS0_8identityIN4mpl_2naEEENS_7numeric6odeint6detail20generic_rk_algorithmILm4EdNS9_13array_algebraENS9_18default_operationsEE12stage_vector12do_insertionEEEvT1_PT_PT0_
FNF:6
FNH:6
DA:45,2
DA:52,2
DA:65,6
DA:77,6
DA:78,6
DA:81,6
DA:82,6
DA:83,6
DA:97,2
DA:104,2
DA:105,2
DA:106,2
DA:114,2
DA:118,2
DA:119,2
LF:15
LH:15
end_of_record
TN:
SF:/opt/homebrew/include/boost/multi_array/extent_gen.hpp
FN:43,43,_ZN5boost6detail11multi_array10extent_genILm0EEC1Ev
FN:43,43,_ZN5boost6detail11multi_array10extent_genILm0EEC2Ev
FNDA:8,_ZN5boost6detail11multi_array10extent_genILm0EEC1Ev
FNDA:8,_ZN5boost6detail11multi_array10extent_genILm0EEC2Ev
FNF:2
FNH:2
DA:43,16
LF:1
LH:1
end_of_record
TN:
SF:/opt/homebrew/include/boost/multi_array/extent_range.hpp
FN:35,35,_ZN5boost6detail11multi_array12extent_rangeIlmEC1Ev
FN:35,35,_ZN5boost6detail11multi_array12extent_rangeIlmEC2Ev
FNDA:8,_ZN5boost6detail11multi_array12extent_rangeIlmEC1Ev
FNDA:8,_ZN5boost6detail11multi_array12extent_rangeIlmEC2Ev
FNF:2
FNH:2
DA:35,16
LF:1
LH:1
end_of_record
TN:
SF:/opt/homebrew/include/boost/multi_array/index_gen.hpp
FN:43,43,_ZN5boost6detail11multi_array9index_genILi0ELi0EEC1Ev
FN:43,43,_ZN5boost6detail11multi_array9index_genILi0ELi0EEC2Ev
FNDA:8,_ZN5boost6detail11multi_array9index_genILi0ELi0EEC1Ev
FNDA:8,_ZN5boost6detail11multi_array9index_genILi0ELi0EEC2Ev
FNF:2
FNH:2
DA:43,16
LF:1
LH:1
end_of_record
TN:
SF:/opt/homebrew/include/boost/multi_array/index_range.hpp
FN:39,40,_ZN5boost6detail11multi_array11index_rangeIlmE10from_startEv
FN:42,43,_ZN5boost6detail11multi_array11index_rangeIlmE6to_endEv
FN:47,53,_ZN5boost6detail11multi_array11index_rangeIlmEC1Ev
FN:47,53,_ZN5boost6detail11multi_array11index_rangeIlmEC2Ev
FNDA:8,_ZN5boost6detail11multi_array11index_rangeIlmE10from_startEv
FNDA:8,_ZN5boost6detail11multi_array11index_rangeIlmE6to_endEv
FNDA:8,_ZN5boost6detail11multi_array11index_rangeIlmEC1Ev
FNDA:8,_ZN5boost6detail11multi_array11index_rangeIlmEC2Ev
FNF:4
FNH:4
DA:39,8
DA:40,8
DA:42,8
DA:43,8
DA:47,16
DA:48,8
DA:49,8
DA:50,8
DA:51,8
DA:52,8
DA:53,16
LF:11
LH:11
end_of_record
TN:
SF:/opt/homebrew/include/boost/numeric/odeint/algebra/array_algebra.hpp
FN:100,109,_ZN5boost7numeric6odeint13array_algebra9for_each6INSt3__15arrayEdLm4ENS1_6detail20generic_rk_scale_sumILm4ENS1_18default_operationsEddEEEEvRT_IT0_XT1_EERKSC_SF_SF_SF_SF_T2_
FN:56,62,_ZN5boost7numeric6odeint13array_algebra9for_each3INSt3__15arrayEdLm4ENS1_6detail20generic_rk_scale_sumILm1ENS1_18default_operationsEddEEEEvRT_IT0_XT1_EERKSC_SF_T2_
FN:77,84,_ZN5boost7numeric6odeint13array_algebra9for_each4INSt3__15arrayEdLm4ENS1_6detail20generic_rk_scale_sumILm2ENS1_18default_operationsEddEEEEvRT_IT0_XT1_EERKSC_SF_SF_T2_
FN:88,96,_ZN5boost7numeric6odeint13array_algebra9for_each5INSt3__15arrayEdLm4ENS1_6detail20generic_rk_scale_sumILm3ENS1_18default_operationsEddEEEEvRT_IT0_XT1_EERKSC_SF_SF_SF_T2_
FNDA:121,_ZN5boost7numeric6odeint13array_algebra9for_each6INSt3__15arrayEdLm4ENS1_6detail20generic_rk_scale_sumILm4ENS1_18default_operationsEddEEEEvRT_IT0_XT1_EERKSC_SF_SF_SF_SF_T2_
FNDA:121,_ZN5boost7numeric6odeint13array_algebra9for_each3INSt3__15arrayEdLm4ENS1_6detail20generic_rk_scale_sumILm1ENS1_18default_operationsEddEEEEvRT_IT0_XT1_EERKSC_SF_T2_
FNDA:121,_ZN5boost7numeric6odeint13array_algebra9for_each4INSt3__15arrayEdLm4ENS1_6detail20generic_rk_scale_sumILm2ENS1_18default_operationsEddEEEEvRT_IT0_XT1_EERKSC_SF_SF_T2_
FNDA:121,_ZN5boost7numeric6odeint13array_algebra9for_each5INSt3__15arrayEdLm4ENS1_6detail20generic_rk_scale_sumILm3ENS1_18default_operationsEddEEEEvRT_IT0_XT1_EERKSC_SF_SF_SF_T2_
FNF:4
FNH:4
DA:56,121
DA:60,605
DA:61,484
DA:62,121
DA:77,121
DA:82,605
DA:83,484
DA:84,121
DA:88,121
DA:94,605
DA:95,484
DA:96,121
DA:100,121
DA:107,605
DA:108,484
DA:109,121
LF:16
LH:16
end_of_record
TN:
SF:/opt/homebrew/include/boost/numeric/odeint/algebra/default_operations.hpp
FN:101,102,_ZN5boost7numeric6odeint18default_operations10scale_sum3IdddEC2Eddd
FN:105,108,_ZNK5boost7numeric6odeint18default_operations10scale_sum3IdddEclIddddEEvRT_RKT0_RKT1_RKT2_
FN:122,123,_ZN5boost7numeric6odeint18default_operations10scale_sum4IddddEC2Edddd
FN:126,129,_ZNK5boost7numeric6odeint18default_operations10scale_sum4IddddEclIdddddEEvRT_RKT0_RKT1_RKT2_RKT3_
FN:144,145,_ZN5boost7numeric6odeint18default_operations10scale_sum5IdddddEC2Eddddd
FN:148,151,_ZNK5boost7numeric6odeint18default_operations10scale_sum5IdddddEclIddddddEEvRT_RKT0_RKT1_RKT2_RKT3_RKT4_
FN:82,82,_ZN5boost7numeric6odeint18default_operations10scale_sum2IddEC2Edd
FN:85,88,_ZNK5boost7numeric6odeint18default_operations10scale_sum2IddEclIdddEEvRT_RKT0_RKT1_
FNDA:121,_ZN5boost7numeric6odeint18default_operations10scale_sum3IdddEC2Eddd
FNDA:484,_ZNK5boost7numeric6odeint18default_operations10scale_sum3IdddEclIddddEEvRT_RKT0_RKT1_RKT2_
FNDA:121,_ZN5boost7numeric6odeint18default_operations10scale_sum4IddddEC2Edddd
FNDA:484,_ZNK5boost7numeric6odeint18default_operations10scale_sum4IddddEclIdddddEEvRT_RKT0_RKT1_RKT2_RKT3_
FNDA:121,_ZN5boost7numeric6odeint18default_operations10scale_sum5IdddddEC2Eddddd
FNDA:484,_ZNK5boost7numeric6odeint18default_operations10scale_sum5IdddddEclIddddddEEvRT_RKT0_RKT1_RKT2_RKT3_RKT4_
FNDA:121,_ZN5boost7numeric6odeint18default_operations10scale_sum2IddEC2Edd
FNDA:484,_ZNK5boost7numeric6odeint18default_operations10scale_sum2IddEclIdddEEvRT_RKT0_RKT1_
FNF:8
FNH:8
DA:82,121
DA:85,484
DA:87,484
DA:88,484
DA:101,121
DA:102,121
DA:105,484
DA:107,484
DA:108,484
DA:122,121
DA:123,121
DA:126,484
DA:128,484
DA:129,484
DA:144,121
DA:145,121
DA:148,484
DA:150,484
DA:151,484
LF:19
LH:19
end_of_record
TN:
SF:/opt/homebrew/include/boost/numeric/odeint/stepper/base/algebra_stepper_base.hpp
FN:34,35,_ZN5boost7numeric6odeint20algebra_stepper_baseINS1_13array_algebraENS1_18default_operationsEEC2ERKS3_
FNDA:2,_ZN5boost7numeric6odeint20algebra_stepper_baseINS1_13array_algebraENS1_18default_operationsEEC2ERKS3_
FNF:1
FNH:1
DA:34,2
DA:35,2
LF:2
LH:2
end_of_record
TN:
SF:/opt/homebrew/include/boost/numeric/odeint/stepper/base/explicit_stepper_base.hpp
FN:112,115,_ZN5boost7numeric6odeint21explicit_stepper_baseINS1_19explicit_generic_rkILm4ELm4ENSt3__15arrayIdLm4EEEdS6_dNS1_13array_algebraENS1_18default_operationsENS1_17initially_resizerEEELt4ES6_dS6_dS7_S8_S9_E7do_stepIPFvRKS6_RS6_dES6_EEvT_RT0_dd
FN:206,208,_ZN5boost7numeric6odeint21explicit_stepper_baseINS1_19explicit_generic_rkILm4ELm4ENSt3__15arrayIdLm4EEEdS6_dNS1_13array_algebraENS1_18default_operationsENS1_17initially_resizerEEELt4ES6_dS6_dS7_S8_S9_E7stepperEv
FN:218,220,_ZN5boost7numeric6odeint21explicit_stepper_baseINS1_19explicit_generic_rkILm4ELm4ENSt3__15arrayIdLm4EEEdS6_dNS1_13array_algebraENS1_18default_operationsENS1_17initially_resizerEEELt4ES6_dS6_dS7_S8_S9_E11resize_implIS6_EEbRKT_
FN:225,231,_ZN5boost7numeric6odeint21explicit_stepper_baseINS1_19explicit_generic_rkILm4ELm4ENSt3__15arrayIdLm4EEEdS6_dNS1_13array_algebraENS1_18default_operationsENS1_17initially_resizerEEELt4ES6_dS6_dS7_S8_S9_E10do_step_v1IPFvRKS6_RS6_dES6_EEvT_RT0_dd
FN:93,95,_ZN5boost7numeric6odeint21explicit_stepper_baseINS1_19explicit_generic_rkILm4ELm4ENSt3__15arrayIdLm4EEEdS6_dNS1_13array_algebraENS1_18default_operationsENS1_17initially_resizerEEELt4ES6_dS6_dS7_S8_S9_EC2ERKS7_
FNDA:121,_ZN5boost7numeric6odeint21explicit_stepper_baseINS1_19explicit_generic_rkILm4ELm4ENSt3__15arrayIdLm4EEEdS6_dNS1_13array_algebraENS1_18default_operationsENS1_17initially_resizerEEELt4ES6_dS6_dS7_S8_S9_E7do_stepIPFvRKS6_RS6_dES6_EEvT_RT0_dd
FNDA:121,_ZN5boost7numeric6odeint21explicit_stepper_baseINS1_19explicit_generic_rkILm4ELm4ENSt3__15arrayIdLm4EEEdS6_dNS1_13array_algebraENS1_18default_operationsENS1_17initially_resizerEEELt4ES6_dS6_dS7_S8_S9_E7stepperEv
FNDA:2,_ZN5boost7numeric6odeint21explicit_stepper_baseINS1_19explicit_generic_rkILm4ELm4ENSt3__15arrayIdLm4EEEdS6_dNS1_13array_algebraENS1_18default_operationsENS1_17initially_resizerEEELt4ES6_dS6_dS7_S8_S9_E11resize_implIS6_EEbRKT_
FNDA:121,_ZN5boost7numeric6odeint21explicit_stepper_baseINS1_19explicit_generic_rkILm4ELm4ENSt3__15arrayIdLm4EEEdS6_dNS1_13array_algebraENS1_18default_operationsENS1_17initially_resizerEEELt4ES6_dS6_dS7_S8_S9_E10do_step_v1IPFvRKS6_RS6_dES6_EEvT_RT0_dd
FNDA:2,_ZN5boost7numeric6odeint21explicit_stepper_baseINS1_19explicit_generic_rkILm4ELm4ENSt3__15arrayIdLm4EEEdS6_dNS1_13array_algebraENS1_18default_operationsENS1_17initially_resizerEEELt4ES6_dS6_dS7_S8_S9_EC2ERKS7_
FNF:5
FNH:5
DA:93,4
DA:94,2
DA:95,2
DA:112,121
DA:114,121
DA:115,121
DA:206,121
DA:208,121
DA:218,2
DA:220,2
DA:225,121
DA:227,121
DA:228,121
DA:229,121
DA:230,121
DA:231,121
LF:16
LH:16
end_of_record
TN:
SF:/opt/homebrew/include/boost/numeric/odeint/stepper/detail/generic_rk_algorithm.hpp
FN:123,124,_ZN5boost7numeric6odeint6detail20generic_rk_algorithmILm4EdNS1_13array_algebraENS1_18default_operationsEE12stage_vector12do_insertionC1ERNS_6fusion6vectorIJNS2_5stageIdLm1EEENSB_IdLm2EEENSB_IdLm3EEENSB_IdLm4EEEEEERKNSA_IJKNS_5arrayIdLm1EEEKNSI_IdLm2EEEKNSI_IdLm3EEEEEERKNSI_IdLm4EEE
FN:123,124,_ZN5boost7numeric6odeint6detail20generic_rk_algorithmILm4EdNS1_13array_algebraENS1_18default_operationsEE12stage_vector12do_insertionC2ERNS_6fusion6vectorIJNS2_5stageIdLm1EEENSB_IdLm2EEENSB_IdLm3EEENSB_IdLm4EEEEEERKNSA_IJKNS_5arrayIdLm1EEEKNSI_IdLm2EEEKNSI_IdLm3EEEEEERKNSI_IdLm4EEE
FN:127,132,_ZNK5boost7numeric6odeint6detail20generic_rk_algorithmILm4EdNS1_13array_algebraENS1_18default_operationsEE12stage_vector12do_insertionclIN4mpl_10integral_cImLm0EEEEEvT_
FN:127,132,_ZNK5boost7numeric6odeint6detail20generic_rk_algorithmILm4EdNS1_13array_algebraENS1_18default_operationsEE12stage_vector12do_insertionclIN4mpl_10integral_cImLm1EEEEEvT_
FN:127,132,_ZNK5boost7numeric6odeint6detail20generic_rk_algorithmILm4EdNS1_13array_algebraENS1_18default_operationsEE12stage_vector12do_insertionclIN4mpl_10integral_cImLm2EEEEEvT_
FN:154,160,_ZN5boost7numeric6odeint6detail20generic_rk_algorithmILm4EdNS1_13array_algebraENS1_18default_operationsEE12stage_vectorC1ERKNS_6fusion6vectorIJKNS_5arrayIdLm1EEEKNSA_IdLm2EEEKNSA_IdLm3EEEEEERKNSA_IdLm4EEESM_
FN:154,160,_ZN5boost7numeric6odeint6detail20generic_rk_algorithmILm4EdNS1_13array_algebraENS1_18default_operationsEE12stage_vectorC2ERKNS_6fusion6vectorIJKNS_5arrayIdLm1EEEKNSA_IdLm2EEEKNSA_IdLm3EEEEEERKNSA_IdLm4EEESM_
FN:185,188,_ZN5boost7numeric6odeint6detail20generic_rk_algorithmILm4EdNS1_13array_algebraENS1_18default_operationsEE15calculate_stageIPFvRKNSt3__15arrayIdLm4EEERSA_dESA_SA_SA_NS1_13state_wrapperISA_vEESA_dEC1ERS4_RSF_SC_SC_SD_SD_PSH_dd
FN:185,188,_ZN5boost7numeric6odeint6detail20generic_rk_algorithmILm4EdNS1_13array_algebraENS1_18default_operationsEE15calculate_stageIPFvRKNSt3__15arrayIdLm4EEERSA_dESA_SA_SA_NS1_13state_wrapperISA_vEESA_dEC2ERS4_RSF_SC_SC_SD_SD_PSH_dd
FN:192,217,_ZNK5boost7numeric6odeint6detail20generic_rk_algorithmILm4EdNS1_13array_algebraENS1_18default_operationsEE15calculate_stageIPFvRKNSt3__15arrayIdLm4EEERSA_dESA_SA_SA_NS1_13state_wrapperISA_vEESA_dEclIdLm1EEEvRKNS2_5stageIT_XT0_EEE
FN:192,217,_ZNK5boost7numeric6odeint6detail20generic_rk_algorithmILm4EdNS1_13array_algebraENS1_18default_operationsEE15calculate_stageIPFvRKNSt3__15arrayIdLm4EEERSA_dESA_SA_SA_NS1_13state_wrapperISA_vEESA_dEclIdLm2EEEvRKNS2_5stageIT_XT0_EEE
FN:192,217,_ZNK5boost7numeric6odeint6detail20generic_rk_algorithmILm4EdNS1_13array_algebraENS1_18default_operationsEE15calculate_stageIPFvRKNSt3__15arrayIdLm4EEERSA_dESA_SA_SA_NS1_13state_wrapperISA_vEESA_dEclIdLm3EEEvRKNS2_5stageIT_XT0_EEE
FN:192,217,_ZNK5boost7numeric6odeint6detail20generic_rk_algorithmILm4EdNS1_13array_algebraENS1_18default_operationsEE15calculate_stageIPFvRKNSt3__15arrayIdLm4EEERSA_dESA_SA_SA_NS1_13state_wrapperISA_vEESA_dEclIdLm4EEEvRKNS2_5stageIT_XT0_EEE
FN:221,223,_ZN5boost7numeric6odeint6detail20generic_rk_algorithmILm4EdNS1_13array_algebraENS1_18default_operationsEEC1ERKNS_6fusion6vectorIJKNS_5arrayIdLm1EEEKNS9_IdLm2EEEKNS9_IdLm3EEEEEERKNS9_IdLm4EEESL_
FN:221,223,_ZN5boost7numeric6odeint6detail20generic_rk_algorithmILm4EdNS1_13array_algebraENS1_18default_operationsEEC2ERKNS_6fusion6vectorIJKNS_5arrayIdLm1EEEKNS9_IdLm2EEEKNS9_IdLm3EEEEEERKNS9_IdLm4EEESL_
FN:226,235,_ZNK5boost7numeric6odeint6detail20generic_rk_algorithmILm4EdNS1_13array_algebraENS1_18default_operationsEE7do_stepIPFvRKNSt3__15arrayIdLm4EEERSA_dESA_SA_dSA_SA_NS1_13state_wrapperISA_vEEEEvRS4_T_RKT0_RKT1_T2_RT3_SQ_RT4_PT5_
FNDA:2,_ZN5boost7numeric6odeint6detail20generic_rk_algorithmILm4EdNS1_13array_algebraENS1_18default_operationsEE12stage_vector12do_insertionC1ERNS_6fusion6vectorIJNS2_5stageIdLm1EEENSB_IdLm2EEENSB_IdLm3EEENSB_IdLm4EEEEEERKNSA_IJKNS_5arrayIdLm1EEEKNSI_IdLm2EEEKNSI_IdLm3EEEEEERKNSI_IdLm4EEE
FNDA:2,_ZN5boost7numeric6odeint6detail20generic_rk_algorithmILm4EdNS1_13array_algebraENS1_18default_operationsEE12stage_vector12do_insertionC2ERNS_6fusion6vectorIJNS2_5stageIdLm1EEENSB_IdLm2EEENSB_IdLm3EEENSB_IdLm4EEEEEERKNSA_IJKNS_5arrayIdLm1EEEKNSI_IdLm2EEEKNSI_IdLm3EEEEEERKNSI_IdLm4EEE
FNDA:2,_ZNK5boost7numeric6odeint6detail20generic_rk_algorithmILm4EdNS1_13array_algebraENS1_18default_operationsEE12stage_vector12do_insertionclIN4mpl_10integral_cImLm0EEEEEvT_
FNDA:2,_ZNK5boost7numeric6odeint6detail20generic_rk_algorithmILm4EdNS1_13array_algebraENS1_18default_operationsEE12stage_vector12do_insertionclIN4mpl_10integral_cImLm1EEEEEvT_
FNDA:2,_ZNK5boost7numeric6odeint6detail20generic_rk_algorithmILm4EdNS1_13array_algebraENS1_18default_operationsEE12stage_vector12do_insertionclIN4mpl_10integral_cImLm2EEEEEvT_
FNDA:2,_ZN5boost7numeric6odeint6detail20generic_rk_algorithmILm4EdNS1_13array_algebraENS1_18default_operationsEE12stage_vectorC1ERKNS_6fusion6vectorIJKNS_5arrayIdLm1EEEKNSA_IdLm2EEEKNSA_IdLm3EEEEEERKNSA_IdLm4EEESM_
FNDA:2,_ZN5boost7numeric6odeint6detail20generic_rk_algorithmILm4EdNS1_13array_algebraENS1_18default_operationsEE12stage_vectorC2ERKNS_6fusion6vectorIJKNS_5arrayIdLm1EEEKNSA_IdLm2EEEKNSA_IdLm3EEEEEERKNSA_IdLm4EEESM_
FNDA:121,_ZN5boost7numeric6odeint6detail20generic_rk_algorithmILm4EdNS1_13array_algebraENS1_18default_operationsEE15calculate_stageIPFvRKNSt3__15arrayIdLm4EEERSA_dESA_SA_SA_NS1_13state_wrapperISA_vEESA_dEC1ERS4_RSF_SC_SC_SD_SD_PSH_dd
FNDA:121,_ZN5boost7numeric6odeint6detail20generic_rk_algorithmILm4EdNS1_13array_algebraENS1_18default_operationsEE15calculate_stageIPFvRKNSt3__15arrayIdLm4EEERSA_dESA_SA_SA_NS1_13state_wrapperISA_vEESA_dEC2ERS4_RSF_SC_SC_SD_SD_PSH_dd
FNDA:121,_ZNK5boost7numeric6odeint6detail20generic_rk_algorithmILm4EdNS1_13array_algebraENS1_18default_operationsEE15calculate_stageIPFvRKNSt3__15arrayIdLm4EEERSA_dESA_SA_SA_NS1_13state_wrapperISA_vEESA_dEclIdLm1EEEvRKNS2_5stageIT_XT0_EEE
FNDA:121,_ZNK5boost7numeric6odeint6detail20generic_rk_algorithmILm4EdNS1_13array_algebraENS1_18default_operationsEE15calculate_stageIPFvRKNSt3__15arrayIdLm4EEERSA_dESA_SA_SA_NS1_13state_wrapperISA_vEESA_dEclIdLm2EEEvRKNS2_5stageIT_XT0_EEE
FNDA:121,_ZNK5boost7numeric6odeint6detail20generic_rk_algorithmILm4EdNS1_13array_algebraENS1_18default_operationsEE15calculate_stageIPFvRKNSt3__15arrayIdLm4EEERSA_dESA_SA_SA_NS1_13state_wrapperISA_vEESA_dEclIdLm3EEEvRKNS2_5stageIT_XT0_EEE
FNDA:121,_ZNK5boost7numeric6odeint6detail20generic_rk_algorithmILm4EdNS1_13array_algebraENS1_18default_operationsEE15calculate_stageIPFvRKNSt3__15arrayIdLm4EEERSA_dESA_SA_SA_NS1_13state_wrapperISA_vEESA_dEclIdLm4EEEvRKNS2_5stageIT_XT0_EEE
FNDA:2,_ZN5boost7numeric6odeint6detail20generic_rk_algorithmILm4EdNS1_13array_algebraENS1_18default_operationsEEC1ERKNS_6fusion6vectorIJKNS_5arrayIdLm1EEEKNS9_IdLm2EEEKNS9_IdLm3EEEEEERKNS9_IdLm4EEESL_
FNDA:2,_ZN5boost7numeric6odeint6detail20generic_rk_algorithmILm4EdNS1_13array_algebraENS1_18default_operationsEEC2ERKNS_6fusion6vectorIJKNS_5arrayIdLm1EEEKNS9_IdLm2EEEKNS9_IdLm3EEEEEERKNS9_IdLm4EEESL_
FNDA:121,_ZNK5boost7numeric6odeint6detail20generic_rk_algorithmILm4EdNS1_13array_algebraENS1_18default_operationsEE7do_stepIPFvRKNSt3__15arrayIdLm4EEERSA_dESA_SA_dSA_SA_NS1_13state_wrapperISA_vEEEEvRS4_T_RKT0_RKT1_T2_RT3_SQ_RT4_PT5_
FNF:16
FNH:16
DA:123,4
DA:124,4
DA:127,6
DA:130,6
DA:131,6
DA:132,6
DA:154,4
DA:155,2
DA:157,2
DA:158,2
DA:159,2
DA:160,4
DA:185,242
DA:187,121
DA:188,242
DA:192,484
DA:200,363
DA:208,726
DA:209,363
DA:213,242
DA:214,121
DA:217,484
DA:221,4
DA:222,2
DA:223,4
DA:226,121
DA:231,121
DA:232,242
DA:234,121
DA:235,121
LF:30
LH:30
end_of_record
TN:
SF:/opt/homebrew/include/boost/numeric/odeint/stepper/detail/generic_rk_call_algebra.hpp
FN:36,39,_ZNK5boost7numeric6odeint6detail23generic_rk_call_algebraILm1ENS1_13array_algebraEEclINSt3__15arrayIdLm4EEEKS9_SA_NS1_13state_wrapperIS9_vEENS2_20generic_rk_scale_sumILm1ENS1_18default_operationsEddEEEEvRS4_RT_RT0_RT1_PT2_T3_
FN:52,55,_ZNK5boost7numeric6odeint6detail23generic_rk_call_algebraILm2ENS1_13array_algebraEEclINSt3__15arrayIdLm4EEEKS9_SA_NS1_13state_wrapperIS9_vEENS2_20generic_rk_scale_sumILm2ENS1_18default_operationsEddEEEEvRS4_RT_RT0_RT1_PT2_T3_
FN:69,72,_ZNK5boost7numeric6odeint6detail23generic_rk_call_algebraILm3ENS1_13array_algebraEEclINSt3__15arrayIdLm4EEEKS9_SA_NS1_13state_wrapperIS9_vEENS2_20generic_rk_scale_sumILm3ENS1_18default_operationsEddEEEEvRS4_RT_RT0_RT1_PT2_T3_
FN:86,89,_ZNK5boost7numeric6odeint6detail23generic_rk_call_algebraILm4ENS1_13array_algebraEEclINSt3__15arrayIdLm4EEEKS9_SA_NS1_13state_wrapperIS9_vEENS2_20generic_rk_scale_sumILm4ENS1_18default_operationsEddEEEEvRS4_RT_RT0_RT1_PT2_T3_
FNDA:121,_ZNK5boost7numeric6odeint6detail23generic_rk_call_algebraILm1ENS1_13array_algebraEEclINSt3__15arrayIdLm4EEEKS9_SA_NS1_13state_wrapperIS9_vEENS2_20generic_rk_scale_sumILm1ENS1_18default_operationsEddEEEEvRS4_RT_RT0_RT1_PT2_T3_
FNDA:121,_ZNK5boost7numeric6odeint6detail23generic_rk_call_algebraILm2ENS1_13array_algebraEEclINSt3__15arrayIdLm4EEEKS9_SA_NS1_13state_wrapperIS9_vEENS2_20generic_rk_scale_sumILm2ENS1_18default_operationsEddEEEEvRS4_RT_RT0_RT1_PT2_T3_
FNDA:121,_ZNK5boost7numeric6odeint6detail23generic_rk_call_algebraILm3ENS1_13array_algebraEEclINSt3__15arrayIdLm4EEEKS9_SA_NS1_13state_wrapperIS9_vEENS2_20generic_rk_scale_sumILm3ENS1_18default_operationsEddEEEEvRS4_RT_RT0_RT1_PT2_T3_
FNDA:121,_ZNK5boost7numeric6odeint6detail23generic_rk_call_algebraILm4ENS1_13array_algebraEEclINSt3__15arrayIdLm4EEEKS9_SA_NS1_13state_wrapperIS9_vEENS2_20generic_rk_scale_sumILm4ENS1_18default_operationsEddEEEEvRS4_RT_RT0_RT1_PT2_T3_
FNF:4
FNH:4
DA:36,121
DA:38,121
DA:39,121
DA:52,121
DA:54,121
DA:55,121
DA:69,121
DA:71,121
DA:72,121
DA:86,121
DA:88,121
DA:89,121
LF:12
LH:12
end_of_record
TN:
SF:/opt/homebrew/include/boost/numeric/odeint/stepper/detail/generic_rk_operations.hpp
FN:33,34,_ZN5boost7numeric6odeint6detail20generic_rk_scale_sumILm1ENS1_18default_operationsEddEC1ERKNS_5arrayIdLm1EEEd
FN:33,34,_ZN5boost7numeric6odeint6detail20generic_rk_scale_sumILm1ENS1_18default_operationsEddEC2ERKNS_5arrayIdLm1EEEd
FN:43,45,_ZN5boost7numeric6odeint6detail20generic_rk_scale_sumILm2ENS1_18default_operationsEddEC1ERKNS_5arrayIdLm2EEEd
FN:43,45,_ZN5boost7numeric6odeint6detail20generic_rk_scale_sumILm2ENS1_18default_operationsEddEC2ERKNS_5arrayIdLm2EEEd
FN:53,55,_ZN5boost7numeric6odeint6detail20generic_rk_scale_sumILm3ENS1_18default_operationsEddEC1ERKNS_5arrayIdLm3EEEd
FN:53,55,_ZN5boost7numeric6odeint6detail20generic_rk_scale_sumILm3ENS1_18default_operationsEddEC2ERKNS_5arrayIdLm3EEEd
FN:63,65,_ZN5boost7numeric6odeint6detail20generic_rk_scale_sumILm4ENS1_18default_operationsEddEC1ERKNS_5arrayIdLm4EEEd
FN:63,65,_ZN5boost7numeric6odeint6detail20generic_rk_scale_sumILm4ENS1_18default_operationsEddEC2ERKNS_5arrayIdLm4EEEd
FNDA:121,_ZN5boost7numeric6odeint6detail20generic_rk_scale_sumILm1ENS1_18default_operationsEddEC1ERKNS_5arrayIdLm1EEEd
FNDA:121,_ZN5boost7numeric6odeint6detail20generic_rk_scale_sumILm1ENS1_18default_operationsEddEC2ERKNS_5arrayIdLm1EEEd
FNDA:121,_ZN5boost7numeric6odeint6detail20generic_rk_scale_sumILm2ENS1_18default_operationsEddEC1ERKNS_5arrayIdLm2EEEd
FNDA:121,_ZN5boost7numeric6odeint6detail20generic_rk_scale_sumILm2ENS1_18default_operationsEddEC2ERKNS_5arrayIdLm2EEEd
FNDA:121,_ZN5boost7numeric6odeint6detail20generic_rk_scale_sumILm3ENS1_18default_operationsEddEC1ERKNS_5arrayIdLm3EEEd
FNDA:121,_ZN5boost7numeric6odeint6detail20generic_rk_scale_sumILm3ENS1_18default_operationsEddEC2ERKNS_5arrayIdLm3EEEd
FNDA:121,_ZN5boost7numeric6odeint6detail20generic_rk_scale_sumILm4ENS1_18default_operationsEddEC1ERKNS_5arrayIdLm4EEEd
FNDA:121,_ZN5boost7numeric6odeint6detail20generic_rk_scale_sumILm4ENS1_18default_operationsEddEC2ERKNS_5arrayIdLm4EEEd
FNF:8
FNH:8
DA:33,242
DA:34,242
DA:43,242
DA:44,121
DA:45,242
DA:53,242
DA:54,121
DA:55,242
DA:63,242
DA:64,121
DA:65,242
LF:11
LH:11
end_of_record
TN:
SF:/opt/homebrew/include/boost/numeric/odeint/stepper/explicit_generic_rk.hpp
FN:139,142,_ZN5boost7numeric6odeint19explicit_generic_rkILm4ELm4ENSt3__15arrayIdLm4EEEdS5_dNS1_13array_algebraENS1_18default_operationsENS1_17initially_resizerEEC2ERKNS_6fusion6vectorIJKNS_5arrayIdLm1EEEKNSC_IdLm2EEEKNSC_IdLm3EEEEEERKNSC_IdLm4EEESO_RKS6_
FN:146,153,_ZN5boost7numeric6odeint19explicit_generic_rkILm4ELm4ENSt3__15arrayIdLm4EEEdS5_dNS1_13array_algebraENS1_18default_operationsENS1_17initially_resizerEE12do_step_implIPFvRKS5_RS5_dES5_S5_S5_EEvT_RKT0_RKT1_dRT2_d
FN:165,173,_ZN5boost7numeric6odeint19explicit_generic_rkILm4ELm4ENSt3__15arrayIdLm4EEEdS5_dNS1_13array_algebraENS1_18default_operationsENS1_17initially_resizerEE11resize_implIS5_EEbRKT_
FNDA:2,_ZN5boost7numeric6odeint19explicit_generic_rkILm4ELm4ENSt3__15arrayIdLm4EEEdS5_dNS1_13array_algebraENS1_18default_operationsENS1_17initially_resizerEEC2ERKNS_6fusion6vectorIJKNS_5arrayIdLm1EEEKNSC_IdLm2EEEKNSC_IdLm3EEEEEERKNSC_IdLm4EEESO_RKS6_
FNDA:121,_ZN5boost7numeric6odeint19explicit_generic_rkILm4ELm4ENSt3__15arrayIdLm4EEEdS5_dNS1_13array_algebraENS1_18default_operationsENS1_17initially_resizerEE12do_step_implIPFvRKS5_RS5_dES5_S5_S5_EEvT_RKT0_RKT1_dRT2_d
FNDA:2,_ZN5boost7numeric6odeint19explicit_generic_rkILm4ELm4ENSt3__15arrayIdLm4EEEdS5_dNS1_13array_algebraENS1_18default_operationsENS1_17initially_resizerEE11resize_implIS5_EEbRKT_
FNF:3
FNH:3
DA:139,4
DA:141,2
DA:142,2
DA:146,121
DA:149,121
DA:152,121
DA:153,121
DA:165,2
DA:167,2
DA:168,2
DA:169,8
DA:171,6
DA:172,6
DA:173,2
LF:14
LH:14
end_of_record
TN:
SF:/opt/homebrew/include/boost/numeric/odeint/stepper/runge_kutta4.hpp
FN:139,142,_ZN5boost7numeric6odeint12runge_kutta4INSt3__15arrayIdLm4EEEdS5_dNS1_13array_algebraENS1_18default_operationsENS1_17initially_resizerEEC1ERKS6_
FN:139,142,_ZN5boost7numeric6odeint12runge_kutta4INSt3__15arrayIdLm4EEEdS5_dNS1_13array_algebraENS1_18default_operationsENS1_17initially_resizerEEC2ERKS6_
FN:47,50,_ZN5boost7numeric6odeint19rk4_coefficients_a1IdEC1Ev
FN:47,50,_ZN5boost7numeric6odeint19rk4_coefficients_a1IdEC2Ev
FN:56,60,_ZN5boost7numeric6odeint19rk4_coefficients_a2IdEC1Ev
FN:56,60,_ZN5boost7numeric6odeint19rk4_coefficients_a2IdEC2Ev
FN:67,72,_ZN5boost7numeric6odeint19rk4_coefficients_a3IdEC1Ev
FN:67,72,_ZN5boost7numeric6odeint19rk4_coefficients_a3IdEC2Ev
FN:78,84,_ZN5boost7numeric6odeint18rk4_coefficients_bIdEC1Ev
FN:78,84,_ZN5boost7numeric6odeint18rk4_coefficients_bIdEC2Ev
FN:90,96,_ZN5boost7numeric6odeint18rk4_coefficients_cIdEC1Ev
FN:90,96,_ZN5boost7numeric6odeint18rk4_coefficients_cIdEC2Ev
FNDA:2,_ZN5boost7numeric6odeint12runge_kutta4INSt3__15arrayIdLm4EEEdS5_dNS1_13array_algebraENS1_18default_operationsENS1_17initially_resizerEEC1ERKS6_
FNDA:2,_ZN5boost7numeric6odeint12runge_kutta4INSt3__15arrayIdLm4EEEdS5_dNS1_13array_algebraENS1_18default_operationsENS1_17initially_resizerEEC2ERKS6_
FNDA:2,_ZN5boost7numeric6odeint19rk4_coefficients_a1IdEC1Ev
FNDA:2,_ZN5boost7numeric6odeint19rk4_coefficients_a1IdEC2Ev
FNDA:2,_ZN5boost7numeric6odeint19rk4_coefficients_a2IdEC1Ev
FNDA:2,_ZN5boost7numeric6odeint19rk4_coefficients_a2IdEC2Ev
FNDA:2,_ZN5boost7numeric6odeint19rk4_coefficients_a3IdEC1Ev
FNDA:2,_ZN5boost7numeric6odeint19rk4_coefficients_a3IdEC2Ev
FNDA:2,_ZN5boost7numeric6odeint18rk4_coefficients_bIdEC1Ev
FNDA:2,_ZN5boost7numeric6odeint18rk4_coefficients_bIdEC2Ev
FNDA:2,_ZN5boost7numeric6odeint18rk4_coefficients_cIdEC1Ev
FNDA:2,_ZN5boost7numeric6odeint18rk4_coefficients_cIdEC2Ev
FNF:12
FNH:12
DA:47,4
DA:48,2
DA:49,2
DA:50,4
DA:56,4
DA:57,2
DA:58,2
DA:59,2
DA:60,4
DA:67,4
DA:68,2
DA:69,2
DA:70,2
DA:71,2
DA:72,4
DA:78,4
DA:79,2
DA:80,2
DA:81,2
DA:82,2
DA:83,2
DA:84,4
DA:90,4
DA:91,2
DA:92,2
DA:93,2
DA:94,2
DA:95,2
DA:96,4
DA:139,6
DA:140,2
DA:141,2
DA:142,4
LF:33
LH:33
end_of_record
TN:
SF:/opt/homebrew/include/boost/numeric/odeint/util/resizer.hpp
FN:43,45,_ZN5boost7numeric6odeint28adjust_size_by_resizeabilityINS1_13state_wrapperINSt3__15arrayIdLm4EEEvEES6_EEbRT_RKT0_NS_17integral_constantIbLb0EEE
FN:63,64,_ZN5boost7numeric6odeint17initially_resizerC1Ev
FN:63,64,_ZN5boost7numeric6odeint17initially_resizerC2Ev
FN:67,75,_ZN5boost7numeric6odeint17initially_resizer11adjust_sizeINSt3__15arrayIdLm4EEENS4_6__bindIMNS1_19explicit_generic_rkILm4ELm4ES6_dS6_dNS1_13array_algebraENS1_18default_operationsES2_EEFbRKS6_EJNS4_17reference_wrapperISB_EERKNS4_12placeholders4__phILi1EEEEEEEEbRKT_T0_
FN:67,75,_ZN5boost7numeric6odeint17initially_resizer11adjust_sizeINSt3__15arrayIdLm4EEENS4_6__bindIMNS1_21explicit_stepper_baseINS1_19explicit_generic_rkILm4ELm4ES6_dS6_dNS1_13array_algebraENS1_18default_operationsES2_EELt4ES6_dS6_dSA_SB_S2_EEFbRKS6_EJNS4_17reference_wrapperISD_EERKNS4_12placeholders4__phILi1EEEEEEEEbRKT_T0_
FNDA:10,_ZN5boost7numeric6odeint28adjust_size_by_resizeabilityINS1_13state_wrapperINSt3__15arrayIdLm4EEEvEES6_EEbRT_RKT0_NS_17integral_constantIbLb0EEE
FNDA:4,_ZN5boost7numeric6odeint17initially_resizerC1Ev
FNDA:4,_ZN5boost7numeric6odeint17initially_resizerC2Ev
FNDA:121,_ZN5boost7numeric6odeint17initially_resizer11adjust_sizeINSt3__15arrayIdLm4EEENS4_6__bindIMNS1_19explicit_generic_rkILm4ELm4ES6_dS6_dNS1_13array_algebraENS1_18default_operationsES2_EEFbRKS6_EJNS4_17reference_wrapperISB_EERKNS4_12placeholders4__phILi1EEEEEEEEbRKT_T0_
FNDA:121,_ZN5boost7numeric6odeint17initially_resizer11adjust_sizeINSt3__15arrayIdLm4EEENS4_6__bindIMNS1_21explicit_stepper_baseINS1_19explicit_generic_rkILm4ELm4ES6_dS6_dNS1_13array_algebraENS1_18default_operationsES2_EELt4ES6_dS6_dSA_SB_S2_EEFbRKS6_EJNS4_17reference_wrapperISD_EERKNS4_12placeholders4__phILi1EEEEEEEEbRKT_T0_
FNF:5
FNH:5
DA:43,10
DA:45,10
DA:63,8
DA:64,8
DA:67,242
DA:69,242
DA:71,4
DA:72,4
DA:74,238
DA:75,242
LF:10
LH:10
end_of_record
TN:
SF:/opt/homebrew/include/boost/utility/value_init.hpp
FN:112,114,_ZN5boost11initializedIN4mpl_10integral_cImLm0EEEE4dataEv
FN:112,114,_ZN5boost11initializedIN4mpl_10integral_cImLm1EEEE4dataEv
FN:112,114,_ZN5boost11initializedIN4mpl_10integral_cImLm2EEEE4dataEv
FN:169,172,_ZN5boost17value_initializedIN4mpl_10integral_cImLm0EEEEC1Ev
FN:169,172,_ZN5boost17value_initializedIN4mpl_10integral_cImLm0EEEEC2Ev
FN:169,172,_ZN5boost17value_initializedIN4mpl_10integral_cImLm1EEEEC1Ev
FN:169,172,_ZN5boost17value_initializedIN4mpl_10integral_cImLm1EEEEC2Ev
FN:169,172,_ZN5boost17value_initializedIN4mpl_10integral_cImLm2EEEEC1Ev
FN:169,172,_ZN5boost17value_initializedIN4mpl_10integral_cImLm2EEEEC2Ev
FN:181,183,_ZN5boost17value_initializedIN4mpl_10integral_cImLm0EEEE4dataEv
FN:181,183,_ZN5boost17value_initializedIN4mpl_10integral_cImLm1EEEE4dataEv
FN:181,183,_ZN5boost17value_initializedIN4mpl_10integral_cImLm2EEEE4dataEv
FN:215,217,_ZN5boost3getIN4mpl_10integral_cImLm0EEEEERT_RNS_17value_initializedIS4_EE
FN:215,217,_ZN5boost3getIN4mpl_10integral_cImLm1EEEEERT_RNS_17value_initializedIS4_EE
FN:215,217,_ZN5boost3getIN4mpl_10integral_cImLm2EEEEERT_RNS_17value_initializedIS4_EE
FN:92,98,_ZN5boost11initializedIN4mpl_10integral_cImLm0EEEEC1Ev
FN:92,98,_ZN5boost11initializedIN4mpl_10integral_cImLm0EEEEC2Ev
FN:92,98,_ZN5boost11initializedIN4mpl_10integral_cImLm1EEEEC1Ev
FN:92,98,_ZN5boost11initializedIN4mpl_10integral_cImLm1EEEEC2Ev
FN:92,98,_ZN5boost11initializedIN4mpl_10integral_cImLm2EEEEC1Ev
FN:92,98,_ZN5boost11initializedIN4mpl_10integral_cImLm2EEEEC2Ev
FNDA:2,_ZN5boost11initializedIN4mpl_10integral_cImLm0EEEE4dataEv
FNDA:2,_ZN5boost11initializedIN4mpl_10integral_cImLm1EEEE4dataEv
FNDA:2,_ZN5boost11initializedIN4mpl_10integral_cImLm2EEEE4dataEv
FNDA:2,_ZN5boost17value_initializedIN4mpl_10integral_cImLm0EEEEC1Ev
FNDA:2,_ZN5boost17value_initializedIN4mpl_10integral_cImLm0EEEEC2Ev
FNDA:2,_ZN5boost17value_initializedIN4mpl_10integral_cImLm1EEEEC1Ev
FNDA:2,_ZN5boost17value_initializedIN4mpl_10integral_cImLm1EEEEC2Ev
FNDA:2,_ZN5boost17value_initializedIN4mpl_10integral_cImLm2EEEEC1Ev
FNDA:2,_ZN5boost17value_initializedIN4mpl_10integral_cImLm2EEEEC2Ev
FNDA:2,_ZN5boost17value_initializedIN4mpl_10integral_cImLm0EEEE4dataEv
FNDA:2,_ZN5boost17value_initializedIN4mpl_10integral_cImLm1EEEE4dataEv
FNDA:2,_ZN5boost17value_initializedIN4mpl_10integral_cImLm2EEEE4dataEv
FNDA:2,_ZN5boost3getIN4mpl_10integral_cImLm0EEEEERT_RNS_17value_initializedIS4_EE
FNDA:2,_ZN5boost3getIN4mpl_10integral_cImLm1EEEEERT_RNS_17value_initializedIS4_EE
FNDA:2,_ZN5boost3getIN4mpl_10integral_cImLm2EEEEERT_RNS_17value_initializedIS4_EE
FNDA:2,_ZN5boost11initializedIN4mpl_10integral_cImLm0EEEEC1Ev
FNDA:2,_ZN5boost11initializedIN4mpl_10integral_cImLm0EEEEC2Ev
FNDA:2,_ZN5boost11initializedIN4mpl_10integral_cImLm1EEEEC1Ev
FNDA:2,_ZN5boost11initializedIN4mpl_10integral_cImLm1EEEEC2Ev
FNDA:2,_ZN5boost11initializedIN4mpl_10integral_cImLm2EEEEC1Ev
FNDA:2,_ZN5boost11initializedIN4mpl_10integral_cImLm2EEEEC2Ev
FNF:21
FNH:21
DA:92,12
DA:96,6
DA:97,6
DA:98,12
DA:112,6
DA:114,6
DA:169,12
DA:171,6
DA:172,12
DA:181,6
DA:183,6
DA:215,6
DA:217,6
LF:13
LH:13
end_of_record
