TN:
SF:/Users/jubair/CLionProjects/untitled/include/Entity.h
FN:44,_ZN6EntityC1ERKS_
FN:44,_ZN6EntityC2ERKS_
FN:44,_ZN6EntityD1Ev
FN:44,_ZN6EntityD2Ev
FN:97,_ZN6Entity16degreesToRadiansEf
FNDA:7,_ZN6EntityC1ERKS_
FNDA:7,_ZN6EntityC2ERKS_
FNDA:23,_ZN6EntityD1Ev
FNDA:23,_ZN6EntityD2Ev
FNDA:10,_ZN6Entity16degreesToRadiansEf
FNF:5
FNH:5
DA:97,10
DA:98,10
LF:2
LH:2
end_of_record
TN:
SF:/Users/jubair/CLionProjects/untitled/src/Entity.cpp
FN:0,__cxx_global_var_init
FN:0,__cxx_global_var_init.1
FN:24,_ZN6EntityC1EfN2sf5ColorEdbb
FN:24,_ZN6EntityC2EfN2sf5ColorEdbb
FN:34,_ZN6Entity10applyForceEff
FN:52,_ZN6Entity6updateEfRN5boost7numeric6odeint12runge_kutta4INSt3__15arrayIdLm4EEEdS6_dNS2_13array_algebraENS2_18default_operationsENS2_17initially_resizerEEE
FN:63,_ZN6Entity13resetPositionEff
FN:73,_ZN6Entity16transferMomentumERS_
FNDA:2,__cxx_global_var_init
FNDA:2,__cxx_global_var_init.1
FNDA:16,_ZN6EntityC1EfN2sf5ColorEdbb
FNDA:16,_ZN6EntityC2EfN2sf5ColorEdbb
FNDA:6,_ZN6Entity10applyForceEff
FNDA:1,_ZN6Entity6updateEfRN5boost7numeric6odeint12runge_kutta4INSt3__15arrayIdLm4EEEdS6_dNS2_13array_algebraENS2_18default_operationsENS2_17initially_resizerEEE
FNDA:11,_ZN6Entity13resetPositionEff
FNDA:1,_ZN6Entity16transferMomentumERS_
FNF:8
FNH:8
DA:24,48
DA:25,32
DA:26,16
DA:27,16
DA:28,16
DA:29,32
DA:34,6
DA:36,6
DA:37,6
DA:40,6
DA:41,6
DA:43,6
DA:46,6
DA:47,6
DA:52,1
DA:53,1
DA:55,1
DA:57,1
DA:58,1
DA:59,1
DA:63,11
DA:64,11
DA:65,11
DA:66,11
DA:67,11
DA:68,11
DA:69,2
DA:70,2
DA:73,1
DA:75,1
DA:76,1
DA:77,1
DA:79,1
DA:80,1
DA:82,1
DA:83,17
DA:86,1
DA:87,1
DA:88,1
DA:89,1
DA:92,1
DA:93,1
DA:94,1
DA:95,1
DA:96,1
LF:45
LH:45
end_of_record
TN:
SF:/Users/jubair/CLionProjects/untitled/src/Game.cpp
FN:0,__cxx_global_var_init
FN:0,__cxx_global_var_init.1
FN:141,_ZN4Game13isOutOfWindowERK6Entity
FN:147,_ZN4Game17resetBirdPositionEv
FN:154,_ZN4Game18simulateTrajectoryEff
FN:177,_ZN4Game14checkCollisionERK6EntityS2_
FN:186,_ZN4Game17updateLaunchArrowEff
FN:194,_ZN4Game6renderEv
FN:210,_ZN4Game15printVelocitiesERKNSt3__112basic_stringIcNS0_11char_traitsIcEENS0_9allocatorIcEEEERK6EntitySB_
FN:23,_ZN4GameC1Ev
FN:23,_ZN4GameC2Ev
FN:34,_ZN4Game9resetGameEv
FN:53,_ZN4Game3runEv
FN:68,_ZN4Game14handleKeyPressEN2sf8Keyboard3KeyE
FN:98,_ZN4Game6updateEv
FNDA:2,__cxx_global_var_init
FNDA:2,__cxx_global_var_init.1
FNDA:0,_ZN4Game13isOutOfWindowERK6Entity
FNDA:0,_ZN4Game17resetBirdPositionEv
FNDA:2,_ZN4Game18simulateTrajectoryEff
FNDA:2,_ZN4Game14checkCollisionERK6EntityS2_
FNDA:2,_ZN4Game17updateLaunchArrowEff
FNDA:0,_ZN4Game6renderEv
FNDA:0,_ZN4Game15printVelocitiesERKNSt3__112basic_stringIcNS0_11char_traitsIcEENS0_9allocatorIcEEEERK6EntitySB_
FNDA:1,_ZN4GameC1Ev
FNDA:1,_ZN4GameC2Ev
FNDA:2,_ZN4Game9resetGameEv
FNDA:0,_ZN4Game3runEv
FNDA:0,_ZN4Game14handleKeyPressEN2sf8Keyboard3KeyE
FNDA:0,_ZN4Game6updateEv
FNF:15
FNH:8
DA:23,2
DA:25,2
DA:26,1
DA:27,1
DA:28,1
DA:29,1
DA:30,1
DA:31,2
DA:34,2
DA:35,2
DA:36,2
DA:37,2
DA:39,2
DA:40,2
DA:42,2
DA:43,2
DA:45,2
DA:46,2
DA:47,2
DA:48,2
DA:49,2
DA:50,2
DA:51,2
DA:53,0
DA:54,0
DA:55,0
DA:56,0
DA:57,0
DA:58,0
DA:59,0
DA:60,0
DA:62,0
DA:63,0
DA:65,0
DA:68,0
DA:69,2
DA:70,2
DA:71,0
DA:73,0
DA:74,0
DA:75,0
DA:76,0
DA:77,0
DA:78,0
DA:79,0
DA:80,0
DA:81,0
DA:82,0
DA:83,0
DA:84,0
DA:85,0
DA:86,0
DA:87,0
DA:88,0
DA:89,0
DA:90,0
DA:91,0
DA:93,0
DA:94,0
DA:95,0
DA:98,0
DA:99,0
DA:100,0
DA:103,0
DA:104,0
DA:105,0
DA:109,0
DA:110,0
DA:111,0
DA:112,0
DA:113,0
DA:115,0
DA:116,0
DA:117,0
DA:121,0
DA:122,0
DA:123,0
DA:124,0
DA:125,0
DA:126,0
DA:128,0
DA:129,0
DA:130,0
DA:131,0
DA:132,0
DA:133,1
DA:134,1
DA:135,0
DA:136,0
DA:137,0
DA:138,0
DA:139,0
DA:141,0
DA:143,0
DA:144,0
DA:147,0
DA:149,0
DA:150,0
DA:151,0
DA:154,2
DA:155,2
DA:156,2
DA:157,2
DA:158,2
DA:159,2
DA:162,122
DA:163,120
DA:166,120
DA:169,240
DA:170,120
DA:171,0
DA:173,120
DA:174,2
DA:177,2
DA:178,2
DA:179,2
DA:180,2
DA:182,2
DA:186,2
DA:187,2
DA:189,2
DA:190,2
DA:191,2
DA:192,2
DA:194,0
DA:195,0
DA:197,0
DA:198,0
DA:199,0
DA:200,0
DA:201,0
DA:203,0
DA:204,0
DA:206,0
DA:207,0
DA:210,0
DA:211,0
DA:212,0
DA:213,0
DA:214,0
LF:140
LH:51
end_of_record
TN:
SF:/Users/jubair/CLionProjects/untitled/src/Physics.cpp
FN:0,__cxx_global_var_init
FN:0,__cxx_global_var_init.1
FN:12,_Z16projectileSystemRKNSt3__15arrayIdLm4EEERS1_d
FNDA:2,__cxx_global_var_init
FNDA:2,__cxx_global_var_init.1
FNDA:484,_Z16projectileSystemRKNSt3__15arrayIdLm4EEERS1_d
FNF:3
FNH:3
DA:12,484
DA:13,484
DA:14,484
DA:15,484
DA:16,484
DA:17,484
DA:69,2
DA:70,2
LF:8
LH:8
end_of_record
TN:
SF:/Users/jubair/CLionProjects/untitled/test/catch.hh
FN:2566,2567,_ZN5Catch6Detail9stringifyINS_6ApproxEEENSt3__112basic_stringIcNS3_11char_traitsIcEENS3_9allocatorIcEEEERKT_
FN:2566,2567,_ZN5Catch6Detail9stringifyIbEENSt3__112basic_stringIcNS2_11char_traitsIcEENS2_9allocatorIcEEEERKT_
FN:2566,2567,_ZN5Catch6Detail9stringifyIdEENSt3__112basic_stringIcNS2_11char_traitsIcEENS2_9allocatorIcEEEERKT_
FN:2566,2567,_ZN5Catch6Detail9stringifyIfEENSt3__112basic_stringIcNS2_11char_traitsIcEENS2_9allocatorIcEEEERKT_
FN:2687,2689,_ZN5Catch11StringMakerIbvE7convertEb
FN:3121,3122,_ZN5Catch6ApproxC1IfvEERKT_
FN:3121,3122,_ZN5Catch6ApproxC1IivEERKT_
FN:3126,3128,_ZN5CatcheqIdvEEbRKT_RKNS_6ApproxE
FN:3126,3128,_ZN5CatcheqIfvEEbRKT_RKNS_6ApproxE
FN:3167,3170,_ZN5Catch6Approx7epsilonIdvEERS0_RKT_
FN:3226,3229,_ZN5Catch14SourceLineInfoC1EPKcm
FN:3226,3229,_ZN5Catch14SourceLineInfoC2EPKcm
FN:5287,5290,_ZN5Catch20ITransientExpressionC2Ebb
FN:5298,5298,_ZN5Catch20ITransientExpressionD2Ev
FN:5309,_ZN5Catch10BinaryExprIbbED0Ev
FN:5309,_ZN5Catch10BinaryExprIbbED1Ev
FN:5309,_ZN5Catch10BinaryExprIbbED2Ev
FN:5309,_ZN5Catch10BinaryExprIdRNS_6ApproxEED0Ev
FN:5309,_ZN5Catch10BinaryExprIdRNS_6ApproxEED1Ev
FN:5309,_ZN5Catch10BinaryExprIdRNS_6ApproxEED2Ev
FN:5309,_ZN5Catch10BinaryExprIdfED0Ev
FN:5309,_ZN5Catch10BinaryExprIdfED1Ev
FN:5309,_ZN5Catch10BinaryExprIdfED2Ev
FN:5309,_ZN5Catch10BinaryExprIfRNS_6ApproxEED0Ev
FN:5309,_ZN5Catch10BinaryExprIfRNS_6ApproxEED1Ev
FN:5309,_ZN5Catch10BinaryExprIfRNS_6ApproxEED2Ev
FN:5314,5317,_ZNK5Catch10BinaryExprIbbE29streamReconstructedExpressionERNSt3__113basic_ostreamIcNS2_11char_traitsIcEEEE
FN:5314,5317,_ZNK5Catch10BinaryExprIdRNS_6ApproxEE29streamReconstructedExpressionERNSt3__113basic_ostreamIcNS4_11char_traitsIcEEEE
FN:5314,5317,_ZNK5Catch10BinaryExprIdfE29streamReconstructedExpressionERNSt3__113basic_ostreamIcNS2_11char_traitsIcEEEE
FN:5314,5317,_ZNK5Catch10BinaryExprIfRNS_6ApproxEE29streamReconstructedExpressionERNSt3__113basic_ostreamIcNS4_11char_traitsIcEEEE
FN:5320,5325,_ZN5Catch10BinaryExprIbbEC1EbbNS_9StringRefEb
FN:5320,5325,_ZN5Catch10BinaryExprIbbEC2EbbNS_9StringRefEb
FN:5320,5325,_ZN5Catch10BinaryExprIdRNS_6ApproxEEC1EbdNS_9StringRefES2_
FN:5320,5325,_ZN5Catch10BinaryExprIdRNS_6ApproxEEC2EbdNS_9StringRefES2_
FN:5320,5325,_ZN5Catch10BinaryExprIdfEC1EbdNS_9StringRefEf
FN:5320,5325,_ZN5Catch10BinaryExprIdfEC2EbdNS_9StringRefEf
FN:5320,5325,_ZN5Catch10BinaryExprIfRNS_6ApproxEEC1EbfNS_9StringRefES2_
FN:5320,5325,_ZN5Catch10BinaryExprIfRNS_6ApproxEEC2EbfNS_9StringRefES2_
FN:5385,_ZN5Catch9UnaryExprIbED0Ev
FN:5385,_ZN5Catch9UnaryExprIbED1Ev
FN:5385,_ZN5Catch9UnaryExprIbED2Ev
FN:5388,5390,_ZNK5Catch9UnaryExprIbE29streamReconstructedExpressionERNSt3__113basic_ostreamIcNS2_11char_traitsIcEEEE
FN:5393,5396,_ZN5Catch9UnaryExprIbEC1Eb
FN:5393,5396,_ZN5Catch9UnaryExprIbEC2Eb
FN:5404,5404,_ZN5Catch7ExprLhsIbEC1Eb
FN:5404,5404,_ZN5Catch7ExprLhsIbEC2Eb
FN:5404,5404,_ZN5Catch7ExprLhsIdEC1Ed
FN:5404,5404,_ZN5Catch7ExprLhsIdEC2Ed
FN:5404,5404,_ZN5Catch7ExprLhsIfEC1Ef
FN:5404,5404,_ZN5Catch7ExprLhsIfEC2Ef
FN:5454,5454,_ZN5CatcheqIRNS_6ApproxEEENSt3__19enable_ifIXsr6Detail11conjunctionINS_6Detail16is_eq_comparableIdT_vEENS3_8negationINS_16capture_by_valueIu20__remove_reference_tIS7_EEEEEEE5valueENS_10BinaryExprIdRKS7_EEE4typeEONS_7ExprLhsIdEEOS7_
FN:5454,5454,_ZN5CatcheqIRNS_6ApproxEEENSt3__19enable_ifIXsr6Detail11conjunctionINS_6Detail16is_eq_comparableIfT_vEENS3_8negationINS_16capture_by_valueIu20__remove_reference_tIS7_EEEEEEE5valueENS_10BinaryExprIfRKS7_EEE4typeEONS_7ExprLhsIfEEOS7_
FN:5454,5454,_ZN5CatcheqIbEENSt3__19enable_ifIXsr6Detail11conjunctionINS_6Detail16is_eq_comparableIbT_vEENS_16capture_by_valueIS5_EEEE5valueENS_10BinaryExprIbS5_EEE4typeEONS_7ExprLhsIbEES5_
FN:5504,5504,_ZN5CatchltIfEENSt3__19enable_ifIXsr6Detail11conjunctionINS_6Detail16is_lt_comparableIdT_vEENS_16capture_by_valueIS5_EEEE5valueENS_10BinaryExprIdS5_EEE4typeEONS_7ExprLhsIdEES5_
FN:5549,5550,_ZNK5Catch7ExprLhsIbE13makeUnaryExprEv
FN:5565,5566,_ZN5CatchleIbLi0EEENS_7ExprLhsIT_EEONS_10DecomposerES2_
FN:5565,5566,_ZN5CatchleIdLi0EEENS_7ExprLhsIT_EEONS_10DecomposerES2_
FN:5565,5566,_ZN5CatchleIfLi0EEENS_7ExprLhsIT_EEONS_10DecomposerES2_
FN:5605,5609,_ZN5Catch16AssertionHandlerD1Ev
FN:5605,5609,_ZN5Catch16AssertionHandlerD2Ev
FN:5613,5615,_ZN5Catch16AssertionHandler10handleExprIbEEvRKNS_7ExprLhsIT_EE
FN:6000,6002,_ZN5Catch11NameAndTagsC1ENS_9StringRefES1_
FN:6000,6002,_ZN5Catch11NameAndTagsC2ENS_9StringRefES1_
FN:702,702,_ZN5Catch9StringRefC1Ev
FN:702,702,_ZN5Catch9StringRefC2Ev
FN:706,709,_ZN5Catch9StringRefC1EPKcm
FN:706,709,_ZN5Catch9StringRefC2EPKcm
FN:779,780,_ZN5Catchli3_srEPKcm
FN:784,785,_Zli9_catch_srPKcm
FN:893,895,_ZN5Catch6Detail10unique_ptrINS_12ITestInvokerEED1Ev
FN:893,895,_ZN5Catch6Detail10unique_ptrINS_12ITestInvokerEED2Ev
FNDA:1,_ZN5Catch6Detail9stringifyINS_6ApproxEEENSt3__112basic_stringIcNS3_11char_traitsIcEENS3_9allocatorIcEEEERKT_
FNDA:0,_ZN5Catch6Detail9stringifyIbEENSt3__112basic_stringIcNS2_11char_traitsIcEENS2_9allocatorIcEEEERKT_
FNDA:2,_ZN5Catch6Detail9stringifyIdEENSt3__112basic_stringIcNS2_11char_traitsIcEENS2_9allocatorIcEEEERKT_
FNDA:0,_ZN5Catch6Detail9stringifyIfEENSt3__112basic_stringIcNS2_11char_traitsIcEENS2_9allocatorIcEEEERKT_
FNDA:0,_ZN5Catch11StringMakerIbvE7convertEb
FNDA:7,_ZN5Catch6ApproxC1IfvEERKT_
FNDA:4,_ZN5Catch6ApproxC1IivEERKT_
FNDA:11,_ZN5CatcheqIdvEEbRKT_RKNS_6ApproxE
FNDA:4,_ZN5CatcheqIfvEEbRKT_RKNS_6ApproxE
FNDA:15,_ZN5Catch6Approx7epsilonIdvEERS0_RKT_
FNDA:45,_ZN5Catch14SourceLineInfoC1EPKcm
FNDA:45,_ZN5Catch14SourceLineInfoC2EPKcm
FNDA:20,_ZN5Catch20ITransientExpressionC2Ebb
FNDA:20,_ZN5Catch20ITransientExpressionD2Ev
FNDA:0,_ZN5Catch10BinaryExprIbbED0Ev
FNDA:2,_ZN5Catch10BinaryExprIbbED1Ev
FNDA:2,_ZN5Catch10BinaryExprIbbED2Ev
FNDA:0,_ZN5Catch10BinaryExprIdRNS_6ApproxEED0Ev
FNDA:11,_ZN5Catch10BinaryExprIdRNS_6ApproxEED1Ev
FNDA:11,_ZN5Catch10BinaryExprIdRNS_6ApproxEED2Ev
FNDA:0,_ZN5Catch10BinaryExprIdfED0Ev
FNDA:1,_ZN5Catch10BinaryExprIdfED1Ev
FNDA:1,_ZN5Catch10BinaryExprIdfED2Ev
FNDA:0,_ZN5Catch10BinaryExprIfRNS_6ApproxEED0Ev
FNDA:4,_ZN5Catch10BinaryExprIfRNS_6ApproxEED1Ev
FNDA:4,_ZN5Catch10BinaryExprIfRNS_6ApproxEED2Ev
FNDA:0,_ZNK5Catch10BinaryExprIbbE29streamReconstructedExpressionERNSt3__113basic_ostreamIcNS2_11char_traitsIcEEEE
FNDA:1,_ZNK5Catch10BinaryExprIdRNS_6ApproxEE29streamReconstructedExpressionERNSt3__113basic_ostreamIcNS4_11char_traitsIcEEEE
FNDA:0,_ZNK5Catch10BinaryExprIdfE29streamReconstructedExpressionERNSt3__113basic_ostreamIcNS2_11char_traitsIcEEEE
FNDA:0,_ZNK5Catch10BinaryExprIfRNS_6ApproxEE29streamReconstructedExpressionERNSt3__113basic_ostreamIcNS4_11char_traitsIcEEEE
FNDA:2,_ZN5Catch10BinaryExprIbbEC1EbbNS_9StringRefEb
FNDA:2,_ZN5Catch10BinaryExprIbbEC2EbbNS_9StringRefEb
FNDA:11,_ZN5Catch10BinaryExprIdRNS_6ApproxEEC1EbdNS_9StringRefES2_
FNDA:11,_ZN5Catch10BinaryExprIdRNS_6ApproxEEC2EbdNS_9StringRefES2_
FNDA:1,_ZN5Catch10BinaryExprIdfEC1EbdNS_9StringRefEf
FNDA:1,_ZN5Catch10BinaryExprIdfEC2EbdNS_9StringRefEf
FNDA:4,_ZN5Catch10BinaryExprIfRNS_6ApproxEEC1EbfNS_9StringRefES2_
FNDA:4,_ZN5Catch10BinaryExprIfRNS_6ApproxEEC2EbfNS_9StringRefES2_
FNDA:0,_ZN5Catch9UnaryExprIbED0Ev
FNDA:2,_ZN5Catch9UnaryExprIbED1Ev
FNDA:2,_ZN5Catch9UnaryExprIbED2Ev
FNDA:0,_ZNK5Catch9UnaryExprIbE29streamReconstructedExpressionERNSt3__113basic_ostreamIcNS2_11char_traitsIcEEEE
FNDA:2,_ZN5Catch9UnaryExprIbEC1Eb
FNDA:2,_ZN5Catch9UnaryExprIbEC2Eb
FNDA:4,_ZN5Catch7ExprLhsIbEC1Eb
FNDA:4,_ZN5Catch7ExprLhsIbEC2Eb
FNDA:12,_ZN5Catch7ExprLhsIdEC1Ed
FNDA:12,_ZN5Catch7ExprLhsIdEC2Ed
FNDA:4,_ZN5Catch7ExprLhsIfEC1Ef
FNDA:4,_ZN5Catch7ExprLhsIfEC2Ef
FNDA:11,_ZN5CatcheqIRNS_6ApproxEEENSt3__19enable_ifIXsr6Detail11conjunctionINS_6Detail16is_eq_comparableIdT_vEENS3_8negationINS_16capture_by_valueIu20__remove_reference_tIS7_EEEEEEE5valueENS_10BinaryExprIdRKS7_EEE4typeEONS_7ExprLhsIdEEOS7_
FNDA:4,_ZN5CatcheqIRNS_6ApproxEEENSt3__19enable_ifIXsr6Detail11conjunctionINS_6Detail16is_eq_comparableIfT_vEENS3_8negationINS_16capture_by_valueIu20__remove_reference_tIS7_EEEEEEE5valueENS_10BinaryExprIfRKS7_EEE4typeEONS_7ExprLhsIfEEOS7_
FNDA:2,_ZN5CatcheqIbEENSt3__19enable_ifIXsr6Detail11conjunctionINS_6Detail16is_eq_comparableIbT_vEENS_16capture_by_valueIS5_EEEE5valueENS_10BinaryExprIbS5_EEE4typeEONS_7ExprLhsIbEES5_
FNDA:1,_ZN5CatchltIfEENSt3__19enable_ifIXsr6Detail11conjunctionINS_6Detail16is_lt_comparableIdT_vEENS_16capture_by_valueIS5_EEEE5valueENS_10BinaryExprIdS5_EEE4typeEONS_7ExprLhsIdEES5_
FNDA:2,_ZNK5Catch7ExprLhsIbE13makeUnaryExprEv
FNDA:4,_ZN5CatchleIbLi0EEENS_7ExprLhsIT_EEONS_10DecomposerES2_
FNDA:12,_ZN5CatchleIdLi0EEENS_7ExprLhsIT_EEONS_10DecomposerES2_
FNDA:4,_ZN5CatchleIfLi0EEENS_7ExprLhsIT_EEONS_10DecomposerES2_
FNDA:20,_ZN5Catch16AssertionHandlerD1Ev
FNDA:20,_ZN5Catch16AssertionHandlerD2Ev
FNDA:2,_ZN5Catch16AssertionHandler10handleExprIbEEvRKNS_7ExprLhsIT_EE
FNDA:16,_ZN5Catch11NameAndTagsC1ENS_9StringRefES1_
FNDA:16,_ZN5Catch11NameAndTagsC2ENS_9StringRefES1_
FNDA:169,_ZN5Catch9StringRefC1Ev
FNDA:169,_ZN5Catch9StringRefC2Ev
FNDA:717,_ZN5Catch9StringRefC1EPKcm
FNDA:717,_ZN5Catch9StringRefC2EPKcm
FNDA:230,_ZN5Catchli3_srEPKcm
FNDA:40,_Zli9_catch_srPKcm
FNDA:62,_ZN5Catch6Detail10unique_ptrINS_12ITestInvokerEED1Ev
FNDA:62,_ZN5Catch6Detail10unique_ptrINS_12ITestInvokerEED2Ev
FNF:71
FNH:59
DA:698,169
DA:699,169
DA:702,507
DA:706,1434
DA:707,717
DA:708,717
DA:709,1434
DA:779,230
DA:780,230
DA:784,40
DA:785,40
DA:893,124
DA:894,62
DA:895,124
DA:2566,3
DA:2567,3
DA:2687,0
DA:2689,0
DA:3121,11
DA:3122,11
DA:3126,15
DA:3127,15
DA:3128,15
DA:3167,15
DA:3168,15
DA:3169,15
DA:3170,15
DA:3226,90
DA:3227,45
DA:3228,45
DA:3229,90
DA:5287,20
DA:5288,20
DA:5289,20
DA:5290,40
DA:5298,20
DA:5314,1
DA:5315,1
DA:5316,1
DA:5317,1
DA:5320,36
DA:5321,18
DA:5322,18
DA:5323,18
DA:5324,18
DA:5325,54
DA:5388,0
DA:5389,0
DA:5390,0
DA:5393,4
DA:5394,2
DA:5395,2
DA:5396,6
DA:5404,40
DA:5454,17
DA:5504,1
DA:5549,2
DA:5550,2
DA:5565,20
DA:5566,20
DA:5605,40
DA:5606,20
DA:5607,0
DA:5608,0
DA:5609,40
DA:5613,2
DA:5614,2
DA:5615,2
DA:6000,32
DA:6002,32
LF:70
LH:63
end_of_record
TN:
SF:/Users/jubair/CLionProjects/untitled/test/gameTest.cpp
FN:0,__cxx_global_var_init
FN:0,__cxx_global_var_init.1
FN:0,__cxx_global_var_init.11
FN:0,__cxx_global_var_init.13
FN:0,__cxx_global_var_init.15
FN:0,__cxx_global_var_init.17
FN:0,__cxx_global_var_init.19
FN:0,__cxx_global_var_init.2
FN:0,__cxx_global_var_init.5
FN:0,__cxx_global_var_init.8
FN:10,_ZL22CATCH2_INTERNAL_TEST_0v
FN:15,_ZL22CATCH2_INTERNAL_TEST_2v
FN:21,_ZL22CATCH2_INTERNAL_TEST_4v
FN:32,_ZL22CATCH2_INTERNAL_TEST_6v
FN:44,_ZL22CATCH2_INTERNAL_TEST_8v
FN:55,_ZL23CATCH2_INTERNAL_TEST_10v
FN:71,_ZL23CATCH2_INTERNAL_TEST_12v
FN:86,_ZL23CATCH2_INTERNAL_TEST_14v
FNDA:2,__cxx_global_var_init
FNDA:2,__cxx_global_var_init.1
FNDA:2,__cxx_global_var_init.11
FNDA:2,__cxx_global_var_init.13
FNDA:2,__cxx_global_var_init.15
FNDA:2,__cxx_global_var_init.17
FNDA:2,__cxx_global_var_init.19
FNDA:2,__cxx_global_var_init.2
FNDA:2,__cxx_global_var_init.5
FNDA:2,__cxx_global_var_init.8
FNDA:1,_ZL22CATCH2_INTERNAL_TEST_0v
FNDA:1,_ZL22CATCH2_INTERNAL_TEST_2v
FNDA:1,_ZL22CATCH2_INTERNAL_TEST_4v
FNDA:1,_ZL22CATCH2_INTERNAL_TEST_6v
FNDA:1,_ZL22CATCH2_INTERNAL_TEST_8v
FNDA:1,_ZL23CATCH2_INTERNAL_TEST_10v
FNDA:1,_ZL23CATCH2_INTERNAL_TEST_12v
FNDA:1,_ZL23CATCH2_INTERNAL_TEST_14v
FNF:18
FNH:18
DA:10,3
DA:11,1
DA:12,1
DA:13,1
DA:15,3
DA:16,1
DA:17,1
DA:18,1
DA:19,1
DA:20,1
DA:21,3
DA:22,1
DA:23,1
DA:24,1
DA:25,1
DA:27,1
DA:29,1
DA:30,1
DA:31,1
DA:32,3
DA:33,1
DA:34,1
DA:35,1
DA:36,1
DA:38,1
DA:41,1
DA:42,1
DA:43,1
DA:44,3
DA:45,1
DA:46,1
DA:47,1
DA:49,1
DA:50,1
DA:51,1
DA:52,1
DA:53,1
DA:55,3
DA:56,1
DA:57,1
DA:58,4
DA:59,1
DA:60,1
DA:61,1
DA:64,3
DA:65,3
DA:66,4
DA:67,2
DA:68,2
DA:69,4
DA:70,2
DA:71,3
DA:72,1
DA:73,1
DA:76,1
DA:77,1
DA:80,1
DA:81,1
DA:83,1
DA:84,1
DA:85,1
DA:86,3
DA:87,1
DA:88,1
DA:91,1
DA:93,1
DA:94,1
DA:96,1
DA:97,1
LF:69
LH:69
end_of_record
